ARM GAS  C:\Users\IlyR\AppData\Local\Temp\ccZiKTUc.s 			page 1


   1              		.syntax unified
   2              		.cpu cortex-m0
   3              		.fpu softvfp
   4              		.eabi_attribute 20, 1
   5              		.eabi_attribute 21, 1
   6              		.eabi_attribute 23, 3
   7              		.eabi_attribute 24, 1
   8              		.eabi_attribute 25, 1
   9              		.eabi_attribute 26, 1
  10              		.eabi_attribute 30, 6
  11              		.eabi_attribute 34, 0
  12              		.eabi_attribute 18, 4
  13              		.thumb
  14              		.syntax unified
  15              		.file	"cyfitter_cfg.c"
  16              		.text
  17              	.Ltext0:
  18              		.cfi_sections	.debug_frame
  19              		.section	.text.CYMEMZERO,"ax",%progbits
  20              		.align	2
  21              		.code	16
  22              		.thumb_func
  23              		.type	CYMEMZERO, %function
  24              	CYMEMZERO:
  25              	.LFB0:
  26              		.file 1 "Generated_Source\\PSoC4\\cyfitter_cfg.c"
   1:Generated_Source\PSoC4/cyfitter_cfg.c **** 
   2:Generated_Source\PSoC4/cyfitter_cfg.c **** /*******************************************************************************
   3:Generated_Source\PSoC4/cyfitter_cfg.c **** * File Name: cyfitter_cfg.c
   4:Generated_Source\PSoC4/cyfitter_cfg.c **** * 
   5:Generated_Source\PSoC4/cyfitter_cfg.c **** * PSoC Creator  4.2
   6:Generated_Source\PSoC4/cyfitter_cfg.c **** *
   7:Generated_Source\PSoC4/cyfitter_cfg.c **** * Description:
   8:Generated_Source\PSoC4/cyfitter_cfg.c **** * This file contains device initialization code.
   9:Generated_Source\PSoC4/cyfitter_cfg.c **** * Except for the user defined sections in CyClockStartupError(), this file should not be modified.
  10:Generated_Source\PSoC4/cyfitter_cfg.c **** * This file is automatically generated by PSoC Creator.
  11:Generated_Source\PSoC4/cyfitter_cfg.c **** *
  12:Generated_Source\PSoC4/cyfitter_cfg.c **** ********************************************************************************
  13:Generated_Source\PSoC4/cyfitter_cfg.c **** * Copyright (c) 2007-2018 Cypress Semiconductor.  All rights reserved.
  14:Generated_Source\PSoC4/cyfitter_cfg.c **** * You may use this file only in accordance with the license, terms, conditions, 
  15:Generated_Source\PSoC4/cyfitter_cfg.c **** * disclaimers, and limitations in the end user license agreement accompanying 
  16:Generated_Source\PSoC4/cyfitter_cfg.c **** * the software package with which this file was provided.
  17:Generated_Source\PSoC4/cyfitter_cfg.c **** ********************************************************************************/
  18:Generated_Source\PSoC4/cyfitter_cfg.c **** 
  19:Generated_Source\PSoC4/cyfitter_cfg.c **** #include <string.h>
  20:Generated_Source\PSoC4/cyfitter_cfg.c **** #include "cytypes.h"
  21:Generated_Source\PSoC4/cyfitter_cfg.c **** #include "cydevice_trm.h"
  22:Generated_Source\PSoC4/cyfitter_cfg.c **** #include "cyfitter.h"
  23:Generated_Source\PSoC4/cyfitter_cfg.c **** #include "CyLib.h"
  24:Generated_Source\PSoC4/cyfitter_cfg.c **** #include "cyfitter_cfg.h"
  25:Generated_Source\PSoC4/cyfitter_cfg.c **** 
  26:Generated_Source\PSoC4/cyfitter_cfg.c **** 
  27:Generated_Source\PSoC4/cyfitter_cfg.c **** #if defined(__GNUC__) || defined(__ARMCC_VERSION)
  28:Generated_Source\PSoC4/cyfitter_cfg.c ****     #define CYPACKED 
  29:Generated_Source\PSoC4/cyfitter_cfg.c ****     #define CYPACKED_ATTR __attribute__ ((packed))
  30:Generated_Source\PSoC4/cyfitter_cfg.c ****     #define CYALIGNED __attribute__ ((aligned))
  31:Generated_Source\PSoC4/cyfitter_cfg.c ****     #define CY_CFG_UNUSED __attribute__ ((unused))
ARM GAS  C:\Users\IlyR\AppData\Local\Temp\ccZiKTUc.s 			page 2


  32:Generated_Source\PSoC4/cyfitter_cfg.c ****     #ifndef CY_CFG_SECTION
  33:Generated_Source\PSoC4/cyfitter_cfg.c ****         #define CY_CFG_SECTION __attribute__ ((section(".psocinit")))
  34:Generated_Source\PSoC4/cyfitter_cfg.c ****     #endif
  35:Generated_Source\PSoC4/cyfitter_cfg.c ****     
  36:Generated_Source\PSoC4/cyfitter_cfg.c ****     #if defined(__ARMCC_VERSION)
  37:Generated_Source\PSoC4/cyfitter_cfg.c ****         #define CY_CFG_MEMORY_BARRIER() __memory_changed()
  38:Generated_Source\PSoC4/cyfitter_cfg.c ****     #else
  39:Generated_Source\PSoC4/cyfitter_cfg.c ****         #define CY_CFG_MEMORY_BARRIER() __sync_synchronize()
  40:Generated_Source\PSoC4/cyfitter_cfg.c ****     #endif
  41:Generated_Source\PSoC4/cyfitter_cfg.c ****     
  42:Generated_Source\PSoC4/cyfitter_cfg.c **** #elif defined(__ICCARM__)
  43:Generated_Source\PSoC4/cyfitter_cfg.c ****     #include <intrinsics.h>
  44:Generated_Source\PSoC4/cyfitter_cfg.c **** 
  45:Generated_Source\PSoC4/cyfitter_cfg.c ****     #define CYPACKED __packed
  46:Generated_Source\PSoC4/cyfitter_cfg.c ****     #define CYPACKED_ATTR 
  47:Generated_Source\PSoC4/cyfitter_cfg.c ****     #define CYALIGNED _Pragma("data_alignment=4")
  48:Generated_Source\PSoC4/cyfitter_cfg.c ****     #define CY_CFG_UNUSED _Pragma("diag_suppress=Pe177")
  49:Generated_Source\PSoC4/cyfitter_cfg.c ****     #define CY_CFG_SECTION _Pragma("location=\".psocinit\"")
  50:Generated_Source\PSoC4/cyfitter_cfg.c ****     
  51:Generated_Source\PSoC4/cyfitter_cfg.c ****     #define CY_CFG_MEMORY_BARRIER() __DMB()
  52:Generated_Source\PSoC4/cyfitter_cfg.c ****     
  53:Generated_Source\PSoC4/cyfitter_cfg.c **** #else
  54:Generated_Source\PSoC4/cyfitter_cfg.c ****     #error Unsupported toolchain
  55:Generated_Source\PSoC4/cyfitter_cfg.c **** #endif
  56:Generated_Source\PSoC4/cyfitter_cfg.c **** 
  57:Generated_Source\PSoC4/cyfitter_cfg.c **** #ifndef CYCODE
  58:Generated_Source\PSoC4/cyfitter_cfg.c ****     #define CYCODE
  59:Generated_Source\PSoC4/cyfitter_cfg.c **** #endif
  60:Generated_Source\PSoC4/cyfitter_cfg.c **** #ifndef CYDATA
  61:Generated_Source\PSoC4/cyfitter_cfg.c ****     #define CYDATA
  62:Generated_Source\PSoC4/cyfitter_cfg.c **** #endif
  63:Generated_Source\PSoC4/cyfitter_cfg.c **** #ifndef CYFAR
  64:Generated_Source\PSoC4/cyfitter_cfg.c ****     #define CYFAR
  65:Generated_Source\PSoC4/cyfitter_cfg.c **** #endif
  66:Generated_Source\PSoC4/cyfitter_cfg.c **** #ifndef CYXDATA
  67:Generated_Source\PSoC4/cyfitter_cfg.c ****     #define CYXDATA
  68:Generated_Source\PSoC4/cyfitter_cfg.c **** #endif
  69:Generated_Source\PSoC4/cyfitter_cfg.c **** 
  70:Generated_Source\PSoC4/cyfitter_cfg.c **** 
  71:Generated_Source\PSoC4/cyfitter_cfg.c **** CY_CFG_UNUSED
  72:Generated_Source\PSoC4/cyfitter_cfg.c **** static void CYMEMZERO(void *s, size_t n);
  73:Generated_Source\PSoC4/cyfitter_cfg.c **** CY_CFG_UNUSED
  74:Generated_Source\PSoC4/cyfitter_cfg.c **** static void CYMEMZERO(void *s, size_t n)
  75:Generated_Source\PSoC4/cyfitter_cfg.c **** {
  27              		.loc 1 75 0
  28              		.cfi_startproc
  29              		@ args = 0, pretend = 0, frame = 8
  30              		@ frame_needed = 1, uses_anonymous_args = 0
  31 0000 80B5     		push	{r7, lr}
  32              		.cfi_def_cfa_offset 8
  33              		.cfi_offset 7, -8
  34              		.cfi_offset 14, -4
  35 0002 82B0     		sub	sp, sp, #8
  36              		.cfi_def_cfa_offset 16
  37 0004 00AF     		add	r7, sp, #0
  38              		.cfi_def_cfa_register 7
  39 0006 7860     		str	r0, [r7, #4]
ARM GAS  C:\Users\IlyR\AppData\Local\Temp\ccZiKTUc.s 			page 3


  40 0008 3960     		str	r1, [r7]
  76:Generated_Source\PSoC4/cyfitter_cfg.c **** 	(void)memset(s, 0, n);
  41              		.loc 1 76 0
  42 000a 3A68     		ldr	r2, [r7]
  43 000c 7B68     		ldr	r3, [r7, #4]
  44 000e 0021     		movs	r1, #0
  45 0010 1800     		movs	r0, r3
  46 0012 FFF7FEFF 		bl	memset
  77:Generated_Source\PSoC4/cyfitter_cfg.c **** }
  47              		.loc 1 77 0
  48 0016 C046     		nop
  49 0018 BD46     		mov	sp, r7
  50 001a 02B0     		add	sp, sp, #8
  51              		@ sp needed
  52 001c 80BD     		pop	{r7, pc}
  53              		.cfi_endproc
  54              	.LFE0:
  55              		.size	CYMEMZERO, .-CYMEMZERO
  56 001e C046     		.section	.text.CYCONFIGCPY,"ax",%progbits
  57              		.align	2
  58              		.code	16
  59              		.thumb_func
  60              		.type	CYCONFIGCPY, %function
  61              	CYCONFIGCPY:
  62              	.LFB1:
  78:Generated_Source\PSoC4/cyfitter_cfg.c **** CY_CFG_UNUSED
  79:Generated_Source\PSoC4/cyfitter_cfg.c **** static void CYCONFIGCPY(void *dest, const void *src, size_t n);
  80:Generated_Source\PSoC4/cyfitter_cfg.c **** CY_CFG_UNUSED
  81:Generated_Source\PSoC4/cyfitter_cfg.c **** static void CYCONFIGCPY(void *dest, const void *src, size_t n)
  82:Generated_Source\PSoC4/cyfitter_cfg.c **** {
  63              		.loc 1 82 0
  64              		.cfi_startproc
  65              		@ args = 0, pretend = 0, frame = 16
  66              		@ frame_needed = 1, uses_anonymous_args = 0
  67 0000 80B5     		push	{r7, lr}
  68              		.cfi_def_cfa_offset 8
  69              		.cfi_offset 7, -8
  70              		.cfi_offset 14, -4
  71 0002 84B0     		sub	sp, sp, #16
  72              		.cfi_def_cfa_offset 24
  73 0004 00AF     		add	r7, sp, #0
  74              		.cfi_def_cfa_register 7
  75 0006 F860     		str	r0, [r7, #12]
  76 0008 B960     		str	r1, [r7, #8]
  77 000a 7A60     		str	r2, [r7, #4]
  83:Generated_Source\PSoC4/cyfitter_cfg.c **** 	(void)memcpy(dest, src, n);
  78              		.loc 1 83 0
  79 000c 7A68     		ldr	r2, [r7, #4]
  80 000e B968     		ldr	r1, [r7, #8]
  81 0010 FB68     		ldr	r3, [r7, #12]
  82 0012 1800     		movs	r0, r3
  83 0014 FFF7FEFF 		bl	memcpy
  84:Generated_Source\PSoC4/cyfitter_cfg.c **** }
  84              		.loc 1 84 0
  85 0018 C046     		nop
  86 001a BD46     		mov	sp, r7
  87 001c 04B0     		add	sp, sp, #16
ARM GAS  C:\Users\IlyR\AppData\Local\Temp\ccZiKTUc.s 			page 4


  88              		@ sp needed
  89 001e 80BD     		pop	{r7, pc}
  90              		.cfi_endproc
  91              	.LFE1:
  92              		.size	CYCONFIGCPY, .-CYCONFIGCPY
  93              		.section	.text.CYCONFIGCPYCODE,"ax",%progbits
  94              		.align	2
  95              		.code	16
  96              		.thumb_func
  97              		.type	CYCONFIGCPYCODE, %function
  98              	CYCONFIGCPYCODE:
  99              	.LFB2:
  85:Generated_Source\PSoC4/cyfitter_cfg.c **** CY_CFG_UNUSED
  86:Generated_Source\PSoC4/cyfitter_cfg.c **** static void CYCONFIGCPYCODE(void *dest, const void *src, size_t n);
  87:Generated_Source\PSoC4/cyfitter_cfg.c **** CY_CFG_UNUSED
  88:Generated_Source\PSoC4/cyfitter_cfg.c **** static void CYCONFIGCPYCODE(void *dest, const void *src, size_t n)
  89:Generated_Source\PSoC4/cyfitter_cfg.c **** {
 100              		.loc 1 89 0
 101              		.cfi_startproc
 102              		@ args = 0, pretend = 0, frame = 16
 103              		@ frame_needed = 1, uses_anonymous_args = 0
 104 0000 80B5     		push	{r7, lr}
 105              		.cfi_def_cfa_offset 8
 106              		.cfi_offset 7, -8
 107              		.cfi_offset 14, -4
 108 0002 84B0     		sub	sp, sp, #16
 109              		.cfi_def_cfa_offset 24
 110 0004 00AF     		add	r7, sp, #0
 111              		.cfi_def_cfa_register 7
 112 0006 F860     		str	r0, [r7, #12]
 113 0008 B960     		str	r1, [r7, #8]
 114 000a 7A60     		str	r2, [r7, #4]
  90:Generated_Source\PSoC4/cyfitter_cfg.c **** 	(void)memcpy(dest, src, n);
 115              		.loc 1 90 0
 116 000c 7A68     		ldr	r2, [r7, #4]
 117 000e B968     		ldr	r1, [r7, #8]
 118 0010 FB68     		ldr	r3, [r7, #12]
 119 0012 1800     		movs	r0, r3
 120 0014 FFF7FEFF 		bl	memcpy
  91:Generated_Source\PSoC4/cyfitter_cfg.c **** }
 121              		.loc 1 91 0
 122 0018 C046     		nop
 123 001a BD46     		mov	sp, r7
 124 001c 04B0     		add	sp, sp, #16
 125              		@ sp needed
 126 001e 80BD     		pop	{r7, pc}
 127              		.cfi_endproc
 128              	.LFE2:
 129              		.size	CYCONFIGCPYCODE, .-CYCONFIGCPYCODE
 130              		.section	.text.cfg_write_bytes32,"ax",%progbits
 131              		.align	2
 132              		.code	16
 133              		.thumb_func
 134              		.type	cfg_write_bytes32, %function
 135              	cfg_write_bytes32:
 136              	.LFB3:
  92:Generated_Source\PSoC4/cyfitter_cfg.c **** 
ARM GAS  C:\Users\IlyR\AppData\Local\Temp\ccZiKTUc.s 			page 5


  93:Generated_Source\PSoC4/cyfitter_cfg.c **** 
  94:Generated_Source\PSoC4/cyfitter_cfg.c **** 
  95:Generated_Source\PSoC4/cyfitter_cfg.c **** 
  96:Generated_Source\PSoC4/cyfitter_cfg.c **** /* Clock startup error codes                                                   */
  97:Generated_Source\PSoC4/cyfitter_cfg.c **** #define CYCLOCKSTART_NO_ERROR    0u
  98:Generated_Source\PSoC4/cyfitter_cfg.c **** #define CYCLOCKSTART_XTAL_ERROR  1u
  99:Generated_Source\PSoC4/cyfitter_cfg.c **** #define CYCLOCKSTART_32KHZ_ERROR 2u
 100:Generated_Source\PSoC4/cyfitter_cfg.c **** #define CYCLOCKSTART_PLL_ERROR   3u
 101:Generated_Source\PSoC4/cyfitter_cfg.c **** #define CYCLOCKSTART_FLL_ERROR   4u
 102:Generated_Source\PSoC4/cyfitter_cfg.c **** #define CYCLOCKSTART_WCO_ERROR   5u
 103:Generated_Source\PSoC4/cyfitter_cfg.c **** 
 104:Generated_Source\PSoC4/cyfitter_cfg.c **** 
 105:Generated_Source\PSoC4/cyfitter_cfg.c **** #ifdef CY_NEED_CYCLOCKSTARTUPERROR
 106:Generated_Source\PSoC4/cyfitter_cfg.c **** /*******************************************************************************
 107:Generated_Source\PSoC4/cyfitter_cfg.c **** * Function Name: CyClockStartupError
 108:Generated_Source\PSoC4/cyfitter_cfg.c **** ********************************************************************************
 109:Generated_Source\PSoC4/cyfitter_cfg.c **** * Summary:
 110:Generated_Source\PSoC4/cyfitter_cfg.c **** *  If an error is encountered during clock configuration (crystal startup error,
 111:Generated_Source\PSoC4/cyfitter_cfg.c **** *  PLL lock error, etc.), the system will end up here.  Unless reimplemented by
 112:Generated_Source\PSoC4/cyfitter_cfg.c **** *  the customer, this function will stop in an infinite loop.
 113:Generated_Source\PSoC4/cyfitter_cfg.c **** *
 114:Generated_Source\PSoC4/cyfitter_cfg.c **** * Parameters:
 115:Generated_Source\PSoC4/cyfitter_cfg.c **** *   void
 116:Generated_Source\PSoC4/cyfitter_cfg.c **** *
 117:Generated_Source\PSoC4/cyfitter_cfg.c **** * Return:
 118:Generated_Source\PSoC4/cyfitter_cfg.c **** *   void
 119:Generated_Source\PSoC4/cyfitter_cfg.c **** *
 120:Generated_Source\PSoC4/cyfitter_cfg.c **** *******************************************************************************/
 121:Generated_Source\PSoC4/cyfitter_cfg.c **** CY_CFG_UNUSED
 122:Generated_Source\PSoC4/cyfitter_cfg.c **** static void CyClockStartupError(uint8 errorCode);
 123:Generated_Source\PSoC4/cyfitter_cfg.c **** CY_CFG_UNUSED
 124:Generated_Source\PSoC4/cyfitter_cfg.c **** static void CyClockStartupError(uint8 errorCode)
 125:Generated_Source\PSoC4/cyfitter_cfg.c **** {
 126:Generated_Source\PSoC4/cyfitter_cfg.c ****     /* To remove the compiler warning if errorCode not used.                */
 127:Generated_Source\PSoC4/cyfitter_cfg.c ****     errorCode = errorCode;
 128:Generated_Source\PSoC4/cyfitter_cfg.c **** 
 129:Generated_Source\PSoC4/cyfitter_cfg.c ****     /* If we have a clock startup error (bad MHz crystal, PLL lock, etc.),  */
 130:Generated_Source\PSoC4/cyfitter_cfg.c ****     /* we will end up here to allow the customer to implement something to  */
 131:Generated_Source\PSoC4/cyfitter_cfg.c ****     /* deal with the clock condition.                                       */
 132:Generated_Source\PSoC4/cyfitter_cfg.c **** 
 133:Generated_Source\PSoC4/cyfitter_cfg.c **** #ifdef CY_CFG_CLOCK_STARTUP_ERROR_CALLBACK
 134:Generated_Source\PSoC4/cyfitter_cfg.c ****     CY_CFG_Clock_Startup_ErrorCallback();
 135:Generated_Source\PSoC4/cyfitter_cfg.c **** #else
 136:Generated_Source\PSoC4/cyfitter_cfg.c ****     /*  If not using CY_CFG_CLOCK_STARTUP_ERROR_CALLBACK, place your clock startup code here. */
 137:Generated_Source\PSoC4/cyfitter_cfg.c ****     /* `#START CyClockStartupError` */
 138:Generated_Source\PSoC4/cyfitter_cfg.c **** 
 139:Generated_Source\PSoC4/cyfitter_cfg.c **** 
 140:Generated_Source\PSoC4/cyfitter_cfg.c **** 
 141:Generated_Source\PSoC4/cyfitter_cfg.c ****     /* `#END` */
 142:Generated_Source\PSoC4/cyfitter_cfg.c **** 
 143:Generated_Source\PSoC4/cyfitter_cfg.c ****     while(1) {}
 144:Generated_Source\PSoC4/cyfitter_cfg.c **** #endif /* CY_CFG_CLOCK_STARTUP_ERROR_CALLBACK */
 145:Generated_Source\PSoC4/cyfitter_cfg.c **** }
 146:Generated_Source\PSoC4/cyfitter_cfg.c **** #endif
 147:Generated_Source\PSoC4/cyfitter_cfg.c **** 
 148:Generated_Source\PSoC4/cyfitter_cfg.c **** #define CY_CFG_BASE_ADDR_COUNT 10u
 149:Generated_Source\PSoC4/cyfitter_cfg.c **** CYPACKED typedef struct
ARM GAS  C:\Users\IlyR\AppData\Local\Temp\ccZiKTUc.s 			page 6


 150:Generated_Source\PSoC4/cyfitter_cfg.c **** {
 151:Generated_Source\PSoC4/cyfitter_cfg.c **** 	uint8 offset;
 152:Generated_Source\PSoC4/cyfitter_cfg.c **** 	uint8 value;
 153:Generated_Source\PSoC4/cyfitter_cfg.c **** } CYPACKED_ATTR cy_cfg_addrvalue_t;
 154:Generated_Source\PSoC4/cyfitter_cfg.c **** 
 155:Generated_Source\PSoC4/cyfitter_cfg.c **** 
 156:Generated_Source\PSoC4/cyfitter_cfg.c **** 
 157:Generated_Source\PSoC4/cyfitter_cfg.c **** /*******************************************************************************
 158:Generated_Source\PSoC4/cyfitter_cfg.c **** * Function Name: cfg_write_bytes32
 159:Generated_Source\PSoC4/cyfitter_cfg.c **** ********************************************************************************
 160:Generated_Source\PSoC4/cyfitter_cfg.c **** * Summary:
 161:Generated_Source\PSoC4/cyfitter_cfg.c **** *  This function is used for setting up the chip configuration areas that
 162:Generated_Source\PSoC4/cyfitter_cfg.c **** *  contain relatively sparse data.
 163:Generated_Source\PSoC4/cyfitter_cfg.c **** *
 164:Generated_Source\PSoC4/cyfitter_cfg.c **** * Parameters:
 165:Generated_Source\PSoC4/cyfitter_cfg.c **** *   void
 166:Generated_Source\PSoC4/cyfitter_cfg.c **** *
 167:Generated_Source\PSoC4/cyfitter_cfg.c **** * Return:
 168:Generated_Source\PSoC4/cyfitter_cfg.c **** *   void
 169:Generated_Source\PSoC4/cyfitter_cfg.c **** *
 170:Generated_Source\PSoC4/cyfitter_cfg.c **** *******************************************************************************/
 171:Generated_Source\PSoC4/cyfitter_cfg.c **** static void cfg_write_bytes32(const uint32 addr_table[], const cy_cfg_addrvalue_t data_table[]);
 172:Generated_Source\PSoC4/cyfitter_cfg.c **** static void cfg_write_bytes32(const uint32 addr_table[], const cy_cfg_addrvalue_t data_table[])
 173:Generated_Source\PSoC4/cyfitter_cfg.c **** {
 137              		.loc 1 173 0
 138              		.cfi_startproc
 139              		@ args = 0, pretend = 0, frame = 24
 140              		@ frame_needed = 1, uses_anonymous_args = 0
 141 0000 80B5     		push	{r7, lr}
 142              		.cfi_def_cfa_offset 8
 143              		.cfi_offset 7, -8
 144              		.cfi_offset 14, -4
 145 0002 86B0     		sub	sp, sp, #24
 146              		.cfi_def_cfa_offset 32
 147 0004 00AF     		add	r7, sp, #0
 148              		.cfi_def_cfa_register 7
 149 0006 7860     		str	r0, [r7, #4]
 150 0008 3960     		str	r1, [r7]
 174:Generated_Source\PSoC4/cyfitter_cfg.c **** 	/* For 32-bit little-endian architectures */
 175:Generated_Source\PSoC4/cyfitter_cfg.c **** 	uint32 i, j = 0u;
 151              		.loc 1 175 0
 152 000a 0023     		movs	r3, #0
 153 000c 3B61     		str	r3, [r7, #16]
 176:Generated_Source\PSoC4/cyfitter_cfg.c **** 	for (i = 0u; i < CY_CFG_BASE_ADDR_COUNT; i++)
 154              		.loc 1 176 0
 155 000e 0023     		movs	r3, #0
 156 0010 7B61     		str	r3, [r7, #20]
 157 0012 2FE0     		b	.L5
 158              	.L8:
 159              	.LBB2:
 177:Generated_Source\PSoC4/cyfitter_cfg.c **** 	{
 178:Generated_Source\PSoC4/cyfitter_cfg.c **** 		uint32 baseAddr = addr_table[i];
 160              		.loc 1 178 0
 161 0014 7B69     		ldr	r3, [r7, #20]
 162 0016 9B00     		lsls	r3, r3, #2
 163 0018 7A68     		ldr	r2, [r7, #4]
 164 001a D318     		adds	r3, r2, r3
ARM GAS  C:\Users\IlyR\AppData\Local\Temp\ccZiKTUc.s 			page 7


 165 001c 1B68     		ldr	r3, [r3]
 166 001e BB60     		str	r3, [r7, #8]
 179:Generated_Source\PSoC4/cyfitter_cfg.c **** 		uint8 count = (uint8)baseAddr;
 167              		.loc 1 179 0
 168 0020 0F23     		movs	r3, #15
 169 0022 FB18     		adds	r3, r7, r3
 170 0024 BA68     		ldr	r2, [r7, #8]
 171 0026 1A70     		strb	r2, [r3]
 180:Generated_Source\PSoC4/cyfitter_cfg.c **** 		baseAddr &= 0xFFFFFF00u;
 172              		.loc 1 180 0
 173 0028 BB68     		ldr	r3, [r7, #8]
 174 002a FF22     		movs	r2, #255
 175 002c 9343     		bics	r3, r2
 176 002e BB60     		str	r3, [r7, #8]
 181:Generated_Source\PSoC4/cyfitter_cfg.c **** 		while (count != 0u)
 177              		.loc 1 181 0
 178 0030 18E0     		b	.L6
 179              	.L7:
 182:Generated_Source\PSoC4/cyfitter_cfg.c **** 		{
 183:Generated_Source\PSoC4/cyfitter_cfg.c **** 			CY_SET_REG8((void *)(baseAddr + data_table[j].offset), data_table[j].value);
 180              		.loc 1 183 0
 181 0032 3B69     		ldr	r3, [r7, #16]
 182 0034 5B00     		lsls	r3, r3, #1
 183 0036 3A68     		ldr	r2, [r7]
 184 0038 D318     		adds	r3, r2, r3
 185 003a 1B78     		ldrb	r3, [r3]
 186 003c 1A00     		movs	r2, r3
 187 003e BB68     		ldr	r3, [r7, #8]
 188 0040 D318     		adds	r3, r2, r3
 189 0042 1900     		movs	r1, r3
 190 0044 3B69     		ldr	r3, [r7, #16]
 191 0046 5B00     		lsls	r3, r3, #1
 192 0048 3A68     		ldr	r2, [r7]
 193 004a D318     		adds	r3, r2, r3
 194 004c 5B78     		ldrb	r3, [r3, #1]
 195 004e 0B70     		strb	r3, [r1]
 184:Generated_Source\PSoC4/cyfitter_cfg.c **** 			j++;
 196              		.loc 1 184 0
 197 0050 3B69     		ldr	r3, [r7, #16]
 198 0052 0133     		adds	r3, r3, #1
 199 0054 3B61     		str	r3, [r7, #16]
 185:Generated_Source\PSoC4/cyfitter_cfg.c **** 			count--;
 200              		.loc 1 185 0
 201 0056 0F23     		movs	r3, #15
 202 0058 FB18     		adds	r3, r7, r3
 203 005a 1A78     		ldrb	r2, [r3]
 204 005c 0F23     		movs	r3, #15
 205 005e FB18     		adds	r3, r7, r3
 206 0060 013A     		subs	r2, r2, #1
 207 0062 1A70     		strb	r2, [r3]
 208              	.L6:
 181:Generated_Source\PSoC4/cyfitter_cfg.c **** 		{
 209              		.loc 1 181 0
 210 0064 0F23     		movs	r3, #15
 211 0066 FB18     		adds	r3, r7, r3
 212 0068 1B78     		ldrb	r3, [r3]
 213 006a 002B     		cmp	r3, #0
ARM GAS  C:\Users\IlyR\AppData\Local\Temp\ccZiKTUc.s 			page 8


 214 006c E1D1     		bne	.L7
 215              	.LBE2:
 176:Generated_Source\PSoC4/cyfitter_cfg.c **** 	{
 216              		.loc 1 176 0 discriminator 2
 217 006e 7B69     		ldr	r3, [r7, #20]
 218 0070 0133     		adds	r3, r3, #1
 219 0072 7B61     		str	r3, [r7, #20]
 220              	.L5:
 176:Generated_Source\PSoC4/cyfitter_cfg.c **** 	{
 221              		.loc 1 176 0 is_stmt 0 discriminator 1
 222 0074 7B69     		ldr	r3, [r7, #20]
 223 0076 092B     		cmp	r3, #9
 224 0078 CCD9     		bls	.L8
 186:Generated_Source\PSoC4/cyfitter_cfg.c **** 		}
 187:Generated_Source\PSoC4/cyfitter_cfg.c **** 	}
 188:Generated_Source\PSoC4/cyfitter_cfg.c **** }
 225              		.loc 1 188 0 is_stmt 1
 226 007a C046     		nop
 227 007c BD46     		mov	sp, r7
 228 007e 06B0     		add	sp, sp, #24
 229              		@ sp needed
 230 0080 80BD     		pop	{r7, pc}
 231              		.cfi_endproc
 232              	.LFE3:
 233              		.size	cfg_write_bytes32, .-cfg_write_bytes32
 234 0082 C046     		.section	.psocinit,"ax",%progbits
 235              		.align	2
 236              		.code	16
 237              		.thumb_func
 238              		.type	ClockSetup, %function
 239              	ClockSetup:
 240              	.LFB4:
 189:Generated_Source\PSoC4/cyfitter_cfg.c **** 
 190:Generated_Source\PSoC4/cyfitter_cfg.c **** 
 191:Generated_Source\PSoC4/cyfitter_cfg.c **** /*******************************************************************************
 192:Generated_Source\PSoC4/cyfitter_cfg.c **** * Function Name: ClockSetup
 193:Generated_Source\PSoC4/cyfitter_cfg.c **** ********************************************************************************
 194:Generated_Source\PSoC4/cyfitter_cfg.c **** *
 195:Generated_Source\PSoC4/cyfitter_cfg.c **** * Summary:
 196:Generated_Source\PSoC4/cyfitter_cfg.c **** *   Performs the initialization of all of the clocks in the device based on the
 197:Generated_Source\PSoC4/cyfitter_cfg.c **** *   settings in the Clock tab of the DWR.  This includes enabling the requested
 198:Generated_Source\PSoC4/cyfitter_cfg.c **** *   clocks and setting the necessary dividers to produce the desired frequency. 
 199:Generated_Source\PSoC4/cyfitter_cfg.c **** *
 200:Generated_Source\PSoC4/cyfitter_cfg.c **** * Parameters:
 201:Generated_Source\PSoC4/cyfitter_cfg.c **** *   void
 202:Generated_Source\PSoC4/cyfitter_cfg.c **** *
 203:Generated_Source\PSoC4/cyfitter_cfg.c **** * Return:
 204:Generated_Source\PSoC4/cyfitter_cfg.c **** *   void
 205:Generated_Source\PSoC4/cyfitter_cfg.c **** *
 206:Generated_Source\PSoC4/cyfitter_cfg.c **** *******************************************************************************/
 207:Generated_Source\PSoC4/cyfitter_cfg.c **** static void ClockSetup(void);
 208:Generated_Source\PSoC4/cyfitter_cfg.c **** CY_CFG_SECTION
 209:Generated_Source\PSoC4/cyfitter_cfg.c **** static void ClockSetup(void)
 210:Generated_Source\PSoC4/cyfitter_cfg.c **** {
 241              		.loc 1 210 0
 242              		.cfi_startproc
 243              		@ args = 0, pretend = 0, frame = 0
ARM GAS  C:\Users\IlyR\AppData\Local\Temp\ccZiKTUc.s 			page 9


 244              		@ frame_needed = 1, uses_anonymous_args = 0
 245 0000 80B5     		push	{r7, lr}
 246              		.cfi_def_cfa_offset 8
 247              		.cfi_offset 7, -8
 248              		.cfi_offset 14, -4
 249 0002 00AF     		add	r7, sp, #0
 250              		.cfi_def_cfa_register 7
 211:Generated_Source\PSoC4/cyfitter_cfg.c **** 	/* Enable HALF_EN before trimming for the flash accelerator. */
 212:Generated_Source\PSoC4/cyfitter_cfg.c **** 	CY_SET_REG32((void CYXDATA *)(CYREG_CLK_SELECT), (CY_GET_REG32((void *)CYREG_CLK_SELECT) | 0x00040
 251              		.loc 1 212 0
 252 0004 1A4B     		ldr	r3, .L10
 253 0006 1A4A     		ldr	r2, .L10
 254 0008 1268     		ldr	r2, [r2]
 255 000a 8021     		movs	r1, #128
 256 000c C902     		lsls	r1, r1, #11
 257 000e 0A43     		orrs	r2, r1
 258 0010 1A60     		str	r2, [r3]
 213:Generated_Source\PSoC4/cyfitter_cfg.c **** 
 214:Generated_Source\PSoC4/cyfitter_cfg.c **** 	/* Setup and trim IMO based on desired frequency. */
 215:Generated_Source\PSoC4/cyfitter_cfg.c **** 	CySysClkWriteImoFreq(48u);
 259              		.loc 1 215 0
 260 0012 3020     		movs	r0, #48
 261 0014 FFF7FEFF 		bl	CySysClkWriteImoFreq
 216:Generated_Source\PSoC4/cyfitter_cfg.c **** 	/* CYDEV_CLK_ILO_CONFIG Starting address: CYDEV_CLK_ILO_CONFIG */
 217:Generated_Source\PSoC4/cyfitter_cfg.c **** 	CY_SET_REG32((void *)(CYREG_CLK_ILO_CONFIG), 0x80000006u);
 262              		.loc 1 217 0
 263 0018 164B     		ldr	r3, .L10+4
 264 001a 174A     		ldr	r2, .L10+8
 265 001c 1A60     		str	r2, [r3]
 218:Generated_Source\PSoC4/cyfitter_cfg.c **** 
 219:Generated_Source\PSoC4/cyfitter_cfg.c **** 
 220:Generated_Source\PSoC4/cyfitter_cfg.c **** 	/* CYDEV_CLK_SELECT00 Starting address: CYDEV_CLK_SELECT00 */
 221:Generated_Source\PSoC4/cyfitter_cfg.c **** 	CY_SET_REG32((void *)(CYREG_CLK_SELECT02), 0x00000030u);
 266              		.loc 1 221 0
 267 001e 174B     		ldr	r3, .L10+12
 268 0020 3022     		movs	r2, #48
 269 0022 1A60     		str	r2, [r3]
 222:Generated_Source\PSoC4/cyfitter_cfg.c **** 	CY_SET_REG32((void *)(CYREG_CLK_SELECT07), 0x00000010u);
 270              		.loc 1 222 0
 271 0024 164B     		ldr	r3, .L10+16
 272 0026 1022     		movs	r2, #16
 273 0028 1A60     		str	r2, [r3]
 223:Generated_Source\PSoC4/cyfitter_cfg.c **** 	CY_SET_REG32((void *)(CYREG_CLK_SELECT08), 0x00000020u);
 274              		.loc 1 223 0
 275 002a 164B     		ldr	r3, .L10+20
 276 002c 2022     		movs	r2, #32
 277 002e 1A60     		str	r2, [r3]
 224:Generated_Source\PSoC4/cyfitter_cfg.c **** 	CY_SET_REG32((void *)(CYREG_CLK_SELECT09), 0x00000011u);
 278              		.loc 1 224 0
 279 0030 154B     		ldr	r3, .L10+24
 280 0032 1122     		movs	r2, #17
 281 0034 1A60     		str	r2, [r3]
 225:Generated_Source\PSoC4/cyfitter_cfg.c **** 	CY_SET_REG32((void *)(CYREG_CLK_SELECT12), 0x00000011u);
 282              		.loc 1 225 0
 283 0036 154B     		ldr	r3, .L10+28
 284 0038 1122     		movs	r2, #17
 285 003a 1A60     		str	r2, [r3]
ARM GAS  C:\Users\IlyR\AppData\Local\Temp\ccZiKTUc.s 			page 10


 226:Generated_Source\PSoC4/cyfitter_cfg.c **** 
 227:Generated_Source\PSoC4/cyfitter_cfg.c **** 	/* CYDEV_CLK_IMO_CONFIG Starting address: CYDEV_CLK_IMO_CONFIG */
 228:Generated_Source\PSoC4/cyfitter_cfg.c **** 	CY_SET_REG32((void *)(CYREG_CLK_IMO_CONFIG), 0x82000000u);
 286              		.loc 1 228 0
 287 003c 144B     		ldr	r3, .L10+32
 288 003e 8222     		movs	r2, #130
 289 0040 1206     		lsls	r2, r2, #24
 290 0042 1A60     		str	r2, [r3]
 229:Generated_Source\PSoC4/cyfitter_cfg.c **** 
 230:Generated_Source\PSoC4/cyfitter_cfg.c **** 	/* CYDEV_CLK_SELECT Starting address: CYDEV_CLK_SELECT */
 231:Generated_Source\PSoC4/cyfitter_cfg.c **** 	CY_SET_REG32((void *)(CYREG_CLK_SELECT), 0x00040000u);
 291              		.loc 1 231 0
 292 0044 0A4B     		ldr	r3, .L10
 293 0046 8022     		movs	r2, #128
 294 0048 D202     		lsls	r2, r2, #11
 295 004a 1A60     		str	r2, [r3]
 232:Generated_Source\PSoC4/cyfitter_cfg.c **** 
 233:Generated_Source\PSoC4/cyfitter_cfg.c **** 	/* CYDEV_CLK_DIVIDER_A00 Starting address: CYDEV_CLK_DIVIDER_A00 */
 234:Generated_Source\PSoC4/cyfitter_cfg.c **** 	CY_SET_REG32((void *)(CYREG_CLK_DIVIDER_A00), 0x80000002u);
 296              		.loc 1 234 0
 297 004c 114B     		ldr	r3, .L10+36
 298 004e 124A     		ldr	r2, .L10+40
 299 0050 1A60     		str	r2, [r3]
 235:Generated_Source\PSoC4/cyfitter_cfg.c **** 
 236:Generated_Source\PSoC4/cyfitter_cfg.c **** 	/* CYDEV_CLK_DIVIDER_B00 Starting address: CYDEV_CLK_DIVIDER_B00 */
 237:Generated_Source\PSoC4/cyfitter_cfg.c **** 	CY_SET_REG32((void *)(CYREG_CLK_DIVIDER_B00), 0x80000009u);
 300              		.loc 1 237 0
 301 0052 124B     		ldr	r3, .L10+44
 302 0054 124A     		ldr	r2, .L10+48
 303 0056 1A60     		str	r2, [r3]
 238:Generated_Source\PSoC4/cyfitter_cfg.c **** 
 239:Generated_Source\PSoC4/cyfitter_cfg.c **** 	/* CYDEV_CLK_DIVIDER_C00 Starting address: CYDEV_CLK_DIVIDER_C00 */
 240:Generated_Source\PSoC4/cyfitter_cfg.c **** 	CY_SET_REG32((void *)(CYREG_CLK_DIVIDER_C00), 0x80000022u);
 304              		.loc 1 240 0
 305 0058 124B     		ldr	r3, .L10+52
 306 005a 134A     		ldr	r2, .L10+56
 307 005c 1A60     		str	r2, [r3]
 241:Generated_Source\PSoC4/cyfitter_cfg.c **** 
 242:Generated_Source\PSoC4/cyfitter_cfg.c **** 	/* CYDEV_CLK_DIVIDER_A01 Starting address: CYDEV_CLK_DIVIDER_A01 */
 243:Generated_Source\PSoC4/cyfitter_cfg.c **** 	CY_SET_REG32((void *)(CYREG_CLK_DIVIDER_A01), 0x800000EFu);
 308              		.loc 1 243 0
 309 005e 134B     		ldr	r3, .L10+60
 310 0060 134A     		ldr	r2, .L10+64
 311 0062 1A60     		str	r2, [r3]
 244:Generated_Source\PSoC4/cyfitter_cfg.c **** 
 245:Generated_Source\PSoC4/cyfitter_cfg.c **** 	CY_SET_REG32((void *)(CYREG_WDT_CONFIG), 0x00000000u);
 312              		.loc 1 245 0
 313 0064 134B     		ldr	r3, .L10+68
 314 0066 0022     		movs	r2, #0
 315 0068 1A60     		str	r2, [r3]
 246:Generated_Source\PSoC4/cyfitter_cfg.c **** }
 316              		.loc 1 246 0
 317 006a C046     		nop
 318 006c BD46     		mov	sp, r7
 319              		@ sp needed
 320 006e 80BD     		pop	{r7, pc}
 321              	.L11:
ARM GAS  C:\Users\IlyR\AppData\Local\Temp\ccZiKTUc.s 			page 11


 322              		.align	2
 323              	.L10:
 324 0070 00010B40 		.word	1074462976
 325 0074 04010B40 		.word	1074462980
 326 0078 06000080 		.word	-2147483642
 327 007c 08020240 		.word	1073873416
 328 0080 1C020240 		.word	1073873436
 329 0084 20020240 		.word	1073873440
 330 0088 24020240 		.word	1073873444
 331 008c 30020240 		.word	1073873456
 332 0090 08010B40 		.word	1074462984
 333 0094 00000240 		.word	1073872896
 334 0098 02000080 		.word	-2147483646
 335 009c 40000240 		.word	1073872960
 336 00a0 09000080 		.word	-2147483639
 337 00a4 80000240 		.word	1073873024
 338 00a8 22000080 		.word	-2147483614
 339 00ac 04000240 		.word	1073872900
 340 00b0 EF000080 		.word	-2147483409
 341 00b4 0C020B40 		.word	1074463244
 342              		.cfi_endproc
 343              	.LFE4:
 344              		.size	ClockSetup, .-ClockSetup
 345              		.section	.text.AnalogSetDefault,"ax",%progbits
 346              		.align	2
 347              		.code	16
 348              		.thumb_func
 349              		.type	AnalogSetDefault, %function
 350              	AnalogSetDefault:
 351              	.LFB5:
 247:Generated_Source\PSoC4/cyfitter_cfg.c **** 
 248:Generated_Source\PSoC4/cyfitter_cfg.c **** 
 249:Generated_Source\PSoC4/cyfitter_cfg.c **** /* Analog API Functions */
 250:Generated_Source\PSoC4/cyfitter_cfg.c **** 
 251:Generated_Source\PSoC4/cyfitter_cfg.c **** 
 252:Generated_Source\PSoC4/cyfitter_cfg.c **** /*******************************************************************************
 253:Generated_Source\PSoC4/cyfitter_cfg.c **** * Function Name: AnalogSetDefault
 254:Generated_Source\PSoC4/cyfitter_cfg.c **** ********************************************************************************
 255:Generated_Source\PSoC4/cyfitter_cfg.c **** *
 256:Generated_Source\PSoC4/cyfitter_cfg.c **** * Summary:
 257:Generated_Source\PSoC4/cyfitter_cfg.c **** *  Sets up the analog portions of the chip to default values based on chip
 258:Generated_Source\PSoC4/cyfitter_cfg.c **** *  configuration options from the project.
 259:Generated_Source\PSoC4/cyfitter_cfg.c **** *
 260:Generated_Source\PSoC4/cyfitter_cfg.c **** * Parameters:
 261:Generated_Source\PSoC4/cyfitter_cfg.c **** *  void
 262:Generated_Source\PSoC4/cyfitter_cfg.c **** *
 263:Generated_Source\PSoC4/cyfitter_cfg.c **** * Return:
 264:Generated_Source\PSoC4/cyfitter_cfg.c **** *  void
 265:Generated_Source\PSoC4/cyfitter_cfg.c **** *
 266:Generated_Source\PSoC4/cyfitter_cfg.c **** *******************************************************************************/
 267:Generated_Source\PSoC4/cyfitter_cfg.c **** static void AnalogSetDefault(void);
 268:Generated_Source\PSoC4/cyfitter_cfg.c **** static void AnalogSetDefault(void)
 269:Generated_Source\PSoC4/cyfitter_cfg.c **** {
 352              		.loc 1 269 0
 353              		.cfi_startproc
 354              		@ args = 0, pretend = 0, frame = 0
 355              		@ frame_needed = 1, uses_anonymous_args = 0
ARM GAS  C:\Users\IlyR\AppData\Local\Temp\ccZiKTUc.s 			page 12


 356 0000 80B5     		push	{r7, lr}
 357              		.cfi_def_cfa_offset 8
 358              		.cfi_offset 7, -8
 359              		.cfi_offset 14, -4
 360 0002 00AF     		add	r7, sp, #0
 361              		.cfi_def_cfa_register 7
 270:Generated_Source\PSoC4/cyfitter_cfg.c **** 	CY_SET_XTND_REG32((void CYFAR *)CYREG_SAR_MUX_SWITCH0, 0x00000042u);
 362              		.loc 1 270 0
 363 0004 054B     		ldr	r3, .L13
 364 0006 4222     		movs	r2, #66
 365 0008 1A60     		str	r2, [r3]
 271:Generated_Source\PSoC4/cyfitter_cfg.c **** 	CY_SET_XTND_REG32((void CYFAR *)CYREG_SAR_MUX_SWITCH_HW_CTRL, 0x00000042u);
 366              		.loc 1 271 0
 367 000a 054B     		ldr	r3, .L13+4
 368 000c 4222     		movs	r2, #66
 369 000e 1A60     		str	r2, [r3]
 272:Generated_Source\PSoC4/cyfitter_cfg.c **** 	SetAnalogRoutingPumps(1);
 370              		.loc 1 272 0
 371 0010 0120     		movs	r0, #1
 372 0012 FFF7FEFF 		bl	SetAnalogRoutingPumps
 273:Generated_Source\PSoC4/cyfitter_cfg.c **** }
 373              		.loc 1 273 0
 374 0016 C046     		nop
 375 0018 BD46     		mov	sp, r7
 376              		@ sp needed
 377 001a 80BD     		pop	{r7, pc}
 378              	.L14:
 379              		.align	2
 380              	.L13:
 381 001c 00031A40 		.word	1075446528
 382 0020 40031A40 		.word	1075446592
 383              		.cfi_endproc
 384              	.LFE5:
 385              		.size	AnalogSetDefault, .-AnalogSetDefault
 386              		.section	.text.SetAnalogRoutingPumps,"ax",%progbits
 387              		.align	2
 388              		.global	SetAnalogRoutingPumps
 389              		.code	16
 390              		.thumb_func
 391              		.type	SetAnalogRoutingPumps, %function
 392              	SetAnalogRoutingPumps:
 393              	.LFB6:
 274:Generated_Source\PSoC4/cyfitter_cfg.c **** 
 275:Generated_Source\PSoC4/cyfitter_cfg.c **** 
 276:Generated_Source\PSoC4/cyfitter_cfg.c **** /*******************************************************************************
 277:Generated_Source\PSoC4/cyfitter_cfg.c **** * Function Name: SetAnalogRoutingPumps
 278:Generated_Source\PSoC4/cyfitter_cfg.c **** ********************************************************************************
 279:Generated_Source\PSoC4/cyfitter_cfg.c **** *
 280:Generated_Source\PSoC4/cyfitter_cfg.c **** * Summary:
 281:Generated_Source\PSoC4/cyfitter_cfg.c **** * Enables or disables the analog pumps feeding analog routing switches.
 282:Generated_Source\PSoC4/cyfitter_cfg.c **** * Intended to be called at startup, based on the Vdda system configuration;
 283:Generated_Source\PSoC4/cyfitter_cfg.c **** * may be called during operation when the user informs us that the Vdda voltage crossed the pump th
 284:Generated_Source\PSoC4/cyfitter_cfg.c **** *
 285:Generated_Source\PSoC4/cyfitter_cfg.c **** * Parameters:
 286:Generated_Source\PSoC4/cyfitter_cfg.c **** *  enabled - 1 to enable the pumps, 0 to disable the pumps
 287:Generated_Source\PSoC4/cyfitter_cfg.c **** *
 288:Generated_Source\PSoC4/cyfitter_cfg.c **** * Return:
ARM GAS  C:\Users\IlyR\AppData\Local\Temp\ccZiKTUc.s 			page 13


 289:Generated_Source\PSoC4/cyfitter_cfg.c **** *  void
 290:Generated_Source\PSoC4/cyfitter_cfg.c **** *
 291:Generated_Source\PSoC4/cyfitter_cfg.c **** *******************************************************************************/
 292:Generated_Source\PSoC4/cyfitter_cfg.c **** void SetAnalogRoutingPumps(uint8 enabled)
 293:Generated_Source\PSoC4/cyfitter_cfg.c **** {
 394              		.loc 1 293 0
 395              		.cfi_startproc
 396              		@ args = 0, pretend = 0, frame = 16
 397              		@ frame_needed = 1, uses_anonymous_args = 0
 398 0000 80B5     		push	{r7, lr}
 399              		.cfi_def_cfa_offset 8
 400              		.cfi_offset 7, -8
 401              		.cfi_offset 14, -4
 402 0002 84B0     		sub	sp, sp, #16
 403              		.cfi_def_cfa_offset 24
 404 0004 00AF     		add	r7, sp, #0
 405              		.cfi_def_cfa_register 7
 406 0006 0200     		movs	r2, r0
 407 0008 FB1D     		adds	r3, r7, #7
 408 000a 1A70     		strb	r2, [r3]
 294:Generated_Source\PSoC4/cyfitter_cfg.c **** 	uint32 regValue = CY_GET_XTND_REG32((void *)(CYREG_SAR_PUMP_CTRL));
 409              		.loc 1 294 0
 410 000c 0B4B     		ldr	r3, .L18
 411 000e 1B68     		ldr	r3, [r3]
 412 0010 FB60     		str	r3, [r7, #12]
 295:Generated_Source\PSoC4/cyfitter_cfg.c **** 	if (enabled != 0u)
 413              		.loc 1 295 0
 414 0012 FB1D     		adds	r3, r7, #7
 415 0014 1B78     		ldrb	r3, [r3]
 416 0016 002B     		cmp	r3, #0
 417 0018 05D0     		beq	.L16
 296:Generated_Source\PSoC4/cyfitter_cfg.c **** 	{
 297:Generated_Source\PSoC4/cyfitter_cfg.c **** 		regValue |= 0x80000000u;
 418              		.loc 1 297 0
 419 001a FB68     		ldr	r3, [r7, #12]
 420 001c 8022     		movs	r2, #128
 421 001e 1206     		lsls	r2, r2, #24
 422 0020 1343     		orrs	r3, r2
 423 0022 FB60     		str	r3, [r7, #12]
 424 0024 03E0     		b	.L17
 425              	.L16:
 298:Generated_Source\PSoC4/cyfitter_cfg.c **** 	}
 299:Generated_Source\PSoC4/cyfitter_cfg.c **** 	else
 300:Generated_Source\PSoC4/cyfitter_cfg.c **** 	{
 301:Generated_Source\PSoC4/cyfitter_cfg.c **** 		regValue &= ~0x80000000u;
 426              		.loc 1 301 0
 427 0026 FB68     		ldr	r3, [r7, #12]
 428 0028 5B00     		lsls	r3, r3, #1
 429 002a 5B08     		lsrs	r3, r3, #1
 430 002c FB60     		str	r3, [r7, #12]
 431              	.L17:
 302:Generated_Source\PSoC4/cyfitter_cfg.c **** 	}
 303:Generated_Source\PSoC4/cyfitter_cfg.c **** 	CY_SET_XTND_REG32((void *)(CYREG_SAR_PUMP_CTRL), regValue);
 432              		.loc 1 303 0
 433 002e 034B     		ldr	r3, .L18
 434 0030 FA68     		ldr	r2, [r7, #12]
 435 0032 1A60     		str	r2, [r3]
ARM GAS  C:\Users\IlyR\AppData\Local\Temp\ccZiKTUc.s 			page 14


 304:Generated_Source\PSoC4/cyfitter_cfg.c **** }
 436              		.loc 1 304 0
 437 0034 C046     		nop
 438 0036 BD46     		mov	sp, r7
 439 0038 04B0     		add	sp, sp, #16
 440              		@ sp needed
 441 003a 80BD     		pop	{r7, pc}
 442              	.L19:
 443              		.align	2
 444              	.L18:
 445 003c 80031A40 		.word	1075446656
 446              		.cfi_endproc
 447              	.LFE6:
 448              		.size	SetAnalogRoutingPumps, .-SetAnalogRoutingPumps
 449              		.section	.psocinit
 450              		.align	2
 451              		.global	cyfitter_cfg
 452              		.code	16
 453              		.thumb_func
 454              		.type	cyfitter_cfg, %function
 455              	cyfitter_cfg:
 456              	.LFB7:
 305:Generated_Source\PSoC4/cyfitter_cfg.c **** 
 306:Generated_Source\PSoC4/cyfitter_cfg.c **** 
 307:Generated_Source\PSoC4/cyfitter_cfg.c **** 
 308:Generated_Source\PSoC4/cyfitter_cfg.c **** 
 309:Generated_Source\PSoC4/cyfitter_cfg.c **** /*******************************************************************************
 310:Generated_Source\PSoC4/cyfitter_cfg.c **** * Function Name: cyfitter_cfg
 311:Generated_Source\PSoC4/cyfitter_cfg.c **** ********************************************************************************
 312:Generated_Source\PSoC4/cyfitter_cfg.c **** * Summary:
 313:Generated_Source\PSoC4/cyfitter_cfg.c **** *  This function is called by the start-up code for the selected device. It
 314:Generated_Source\PSoC4/cyfitter_cfg.c **** *  performs all of the necessary device configuration based on the design
 315:Generated_Source\PSoC4/cyfitter_cfg.c **** *  settings.  This includes settings from the Design Wide Resources (DWR) such
 316:Generated_Source\PSoC4/cyfitter_cfg.c **** *  as Clocks and Pins as well as any component configuration that is necessary.
 317:Generated_Source\PSoC4/cyfitter_cfg.c **** *
 318:Generated_Source\PSoC4/cyfitter_cfg.c **** * Parameters:
 319:Generated_Source\PSoC4/cyfitter_cfg.c **** *   void
 320:Generated_Source\PSoC4/cyfitter_cfg.c **** *
 321:Generated_Source\PSoC4/cyfitter_cfg.c **** * Return:
 322:Generated_Source\PSoC4/cyfitter_cfg.c **** *   void
 323:Generated_Source\PSoC4/cyfitter_cfg.c **** *
 324:Generated_Source\PSoC4/cyfitter_cfg.c **** *******************************************************************************/
 325:Generated_Source\PSoC4/cyfitter_cfg.c **** CY_CFG_SECTION
 326:Generated_Source\PSoC4/cyfitter_cfg.c **** void cyfitter_cfg(void)
 327:Generated_Source\PSoC4/cyfitter_cfg.c **** {
 457              		.loc 1 327 0
 458              		.cfi_startproc
 459              		@ args = 0, pretend = 0, frame = 8
 460              		@ frame_needed = 1, uses_anonymous_args = 0
 461 00b8 80B5     		push	{r7, lr}
 462              		.cfi_def_cfa_offset 8
 463              		.cfi_offset 7, -8
 464              		.cfi_offset 14, -4
 465 00ba 82B0     		sub	sp, sp, #8
 466              		.cfi_def_cfa_offset 16
 467 00bc 00AF     		add	r7, sp, #0
 468              		.cfi_def_cfa_register 7
ARM GAS  C:\Users\IlyR\AppData\Local\Temp\ccZiKTUc.s 			page 15


 328:Generated_Source\PSoC4/cyfitter_cfg.c **** 	/* Disable interrupts by default. Let user enable if/when they want. */
 329:Generated_Source\PSoC4/cyfitter_cfg.c **** 	CyGlobalIntDisable;
 469              		.loc 1 329 0
 470              		.syntax divided
 471              	@ 329 "Generated_Source\PSoC4\cyfitter_cfg.c" 1
 472 00be 72B6     		CPSID   i
 473              	@ 0 "" 2
 330:Generated_Source\PSoC4/cyfitter_cfg.c **** 
 331:Generated_Source\PSoC4/cyfitter_cfg.c **** 	/* Enable the clock in the interrupt controller for the routed interrupts */
 332:Generated_Source\PSoC4/cyfitter_cfg.c **** 	CY_SET_REG8((void *)CYREG_UDB_UDBIF_INT_CLK_CTL, 0x01u);
 474              		.loc 1 332 0
 475              		.thumb
 476              		.syntax unified
 477 00c0 5D4B     		ldr	r3, .L23
 478 00c2 0122     		movs	r2, #1
 479 00c4 1A70     		strb	r2, [r3]
 480              	.LBB3:
 333:Generated_Source\PSoC4/cyfitter_cfg.c **** 	{
 334:Generated_Source\PSoC4/cyfitter_cfg.c **** 		static const uint32 CYCODE cy_cfg_addr_table[] = {
 335:Generated_Source\PSoC4/cyfitter_cfg.c **** 			0x400F0001u, /* Base address: 0x400F0000 Count: 1 */
 336:Generated_Source\PSoC4/cyfitter_cfg.c **** 			0x400F302Bu, /* Base address: 0x400F3000 Count: 43 */
 337:Generated_Source\PSoC4/cyfitter_cfg.c **** 			0x400F312Au, /* Base address: 0x400F3100 Count: 42 */
 338:Generated_Source\PSoC4/cyfitter_cfg.c **** 			0x400F3255u, /* Base address: 0x400F3200 Count: 85 */
 339:Generated_Source\PSoC4/cyfitter_cfg.c **** 			0x400F333Fu, /* Base address: 0x400F3300 Count: 63 */
 340:Generated_Source\PSoC4/cyfitter_cfg.c **** 			0x400F400Eu, /* Base address: 0x400F4000 Count: 14 */
 341:Generated_Source\PSoC4/cyfitter_cfg.c **** 			0x400F410Bu, /* Base address: 0x400F4100 Count: 11 */
 342:Generated_Source\PSoC4/cyfitter_cfg.c **** 			0x400F4214u, /* Base address: 0x400F4200 Count: 20 */
 343:Generated_Source\PSoC4/cyfitter_cfg.c **** 			0x400F431Au, /* Base address: 0x400F4300 Count: 26 */
 344:Generated_Source\PSoC4/cyfitter_cfg.c **** 			0x400F6002u, /* Base address: 0x400F6000 Count: 2 */
 345:Generated_Source\PSoC4/cyfitter_cfg.c **** 		};
 346:Generated_Source\PSoC4/cyfitter_cfg.c **** 
 347:Generated_Source\PSoC4/cyfitter_cfg.c **** 		static const cy_cfg_addrvalue_t CYCODE cy_cfg_data_table[] = {
 348:Generated_Source\PSoC4/cyfitter_cfg.c **** 			{0x83u, 0x0Du},
 349:Generated_Source\PSoC4/cyfitter_cfg.c **** 			{0x08u, 0x02u},
 350:Generated_Source\PSoC4/cyfitter_cfg.c **** 			{0x0Au, 0x01u},
 351:Generated_Source\PSoC4/cyfitter_cfg.c **** 			{0x0Cu, 0x01u},
 352:Generated_Source\PSoC4/cyfitter_cfg.c **** 			{0x0Du, 0x02u},
 353:Generated_Source\PSoC4/cyfitter_cfg.c **** 			{0x0Eu, 0x02u},
 354:Generated_Source\PSoC4/cyfitter_cfg.c **** 			{0x0Fu, 0x01u},
 355:Generated_Source\PSoC4/cyfitter_cfg.c **** 			{0x12u, 0x03u},
 356:Generated_Source\PSoC4/cyfitter_cfg.c **** 			{0x15u, 0x02u},
 357:Generated_Source\PSoC4/cyfitter_cfg.c **** 			{0x16u, 0x03u},
 358:Generated_Source\PSoC4/cyfitter_cfg.c **** 			{0x17u, 0x01u},
 359:Generated_Source\PSoC4/cyfitter_cfg.c **** 			{0x18u, 0x01u},
 360:Generated_Source\PSoC4/cyfitter_cfg.c **** 			{0x1Au, 0x02u},
 361:Generated_Source\PSoC4/cyfitter_cfg.c **** 			{0x1Bu, 0x03u},
 362:Generated_Source\PSoC4/cyfitter_cfg.c **** 			{0x1Fu, 0x03u},
 363:Generated_Source\PSoC4/cyfitter_cfg.c **** 			{0x25u, 0x01u},
 364:Generated_Source\PSoC4/cyfitter_cfg.c **** 			{0x27u, 0x02u},
 365:Generated_Source\PSoC4/cyfitter_cfg.c **** 			{0x34u, 0x03u},
 366:Generated_Source\PSoC4/cyfitter_cfg.c **** 			{0x35u, 0x03u},
 367:Generated_Source\PSoC4/cyfitter_cfg.c **** 			{0x3Bu, 0x0Cu},
 368:Generated_Source\PSoC4/cyfitter_cfg.c **** 			{0x3Eu, 0x10u},
 369:Generated_Source\PSoC4/cyfitter_cfg.c **** 			{0x3Fu, 0x10u},
 370:Generated_Source\PSoC4/cyfitter_cfg.c **** 			{0x58u, 0x04u},
 371:Generated_Source\PSoC4/cyfitter_cfg.c **** 			{0x59u, 0x04u},
 372:Generated_Source\PSoC4/cyfitter_cfg.c **** 			{0x5Bu, 0x04u},
ARM GAS  C:\Users\IlyR\AppData\Local\Temp\ccZiKTUc.s 			page 16


 373:Generated_Source\PSoC4/cyfitter_cfg.c **** 			{0x5Fu, 0x01u},
 374:Generated_Source\PSoC4/cyfitter_cfg.c **** 			{0x8Bu, 0x01u},
 375:Generated_Source\PSoC4/cyfitter_cfg.c **** 			{0x8Cu, 0x02u},
 376:Generated_Source\PSoC4/cyfitter_cfg.c **** 			{0x8Eu, 0x01u},
 377:Generated_Source\PSoC4/cyfitter_cfg.c **** 			{0x94u, 0x01u},
 378:Generated_Source\PSoC4/cyfitter_cfg.c **** 			{0x96u, 0x02u},
 379:Generated_Source\PSoC4/cyfitter_cfg.c **** 			{0x97u, 0x01u},
 380:Generated_Source\PSoC4/cyfitter_cfg.c **** 			{0xA4u, 0x02u},
 381:Generated_Source\PSoC4/cyfitter_cfg.c **** 			{0xA6u, 0x01u},
 382:Generated_Source\PSoC4/cyfitter_cfg.c **** 			{0xA9u, 0x01u},
 383:Generated_Source\PSoC4/cyfitter_cfg.c **** 			{0xB0u, 0x03u},
 384:Generated_Source\PSoC4/cyfitter_cfg.c **** 			{0xB7u, 0x01u},
 385:Generated_Source\PSoC4/cyfitter_cfg.c **** 			{0xB8u, 0x20u},
 386:Generated_Source\PSoC4/cyfitter_cfg.c **** 			{0xBEu, 0x11u},
 387:Generated_Source\PSoC4/cyfitter_cfg.c **** 			{0xBFu, 0x40u},
 388:Generated_Source\PSoC4/cyfitter_cfg.c **** 			{0xD8u, 0x04u},
 389:Generated_Source\PSoC4/cyfitter_cfg.c **** 			{0xD9u, 0x04u},
 390:Generated_Source\PSoC4/cyfitter_cfg.c **** 			{0xDBu, 0x04u},
 391:Generated_Source\PSoC4/cyfitter_cfg.c **** 			{0xDFu, 0x01u},
 392:Generated_Source\PSoC4/cyfitter_cfg.c **** 			{0x02u, 0x08u},
 393:Generated_Source\PSoC4/cyfitter_cfg.c **** 			{0x03u, 0x01u},
 394:Generated_Source\PSoC4/cyfitter_cfg.c **** 			{0x07u, 0x01u},
 395:Generated_Source\PSoC4/cyfitter_cfg.c **** 			{0x08u, 0x10u},
 396:Generated_Source\PSoC4/cyfitter_cfg.c **** 			{0x0Au, 0xA0u},
 397:Generated_Source\PSoC4/cyfitter_cfg.c **** 			{0x0Fu, 0x20u},
 398:Generated_Source\PSoC4/cyfitter_cfg.c **** 			{0x14u, 0x10u},
 399:Generated_Source\PSoC4/cyfitter_cfg.c **** 			{0x1Au, 0x08u},
 400:Generated_Source\PSoC4/cyfitter_cfg.c **** 			{0x1Du, 0x01u},
 401:Generated_Source\PSoC4/cyfitter_cfg.c **** 			{0x1Fu, 0x20u},
 402:Generated_Source\PSoC4/cyfitter_cfg.c **** 			{0x20u, 0x10u},
 403:Generated_Source\PSoC4/cyfitter_cfg.c **** 			{0x23u, 0x04u},
 404:Generated_Source\PSoC4/cyfitter_cfg.c **** 			{0x26u, 0x80u},
 405:Generated_Source\PSoC4/cyfitter_cfg.c **** 			{0x2Bu, 0x10u},
 406:Generated_Source\PSoC4/cyfitter_cfg.c **** 			{0x2Fu, 0x08u},
 407:Generated_Source\PSoC4/cyfitter_cfg.c **** 			{0x32u, 0x58u},
 408:Generated_Source\PSoC4/cyfitter_cfg.c **** 			{0x36u, 0x08u},
 409:Generated_Source\PSoC4/cyfitter_cfg.c **** 			{0x39u, 0x40u},
 410:Generated_Source\PSoC4/cyfitter_cfg.c **** 			{0x3Fu, 0x20u},
 411:Generated_Source\PSoC4/cyfitter_cfg.c **** 			{0x68u, 0x04u},
 412:Generated_Source\PSoC4/cyfitter_cfg.c **** 			{0x6Au, 0x80u},
 413:Generated_Source\PSoC4/cyfitter_cfg.c **** 			{0x6Bu, 0x04u},
 414:Generated_Source\PSoC4/cyfitter_cfg.c **** 			{0x6Du, 0x40u},
 415:Generated_Source\PSoC4/cyfitter_cfg.c **** 			{0x6Fu, 0x01u},
 416:Generated_Source\PSoC4/cyfitter_cfg.c **** 			{0x80u, 0x10u},
 417:Generated_Source\PSoC4/cyfitter_cfg.c **** 			{0x81u, 0x01u},
 418:Generated_Source\PSoC4/cyfitter_cfg.c **** 			{0x83u, 0x04u},
 419:Generated_Source\PSoC4/cyfitter_cfg.c **** 			{0x84u, 0x10u},
 420:Generated_Source\PSoC4/cyfitter_cfg.c **** 			{0x86u, 0x08u},
 421:Generated_Source\PSoC4/cyfitter_cfg.c **** 			{0x87u, 0x08u},
 422:Generated_Source\PSoC4/cyfitter_cfg.c **** 			{0x88u, 0x04u},
 423:Generated_Source\PSoC4/cyfitter_cfg.c **** 			{0x8Eu, 0x10u},
 424:Generated_Source\PSoC4/cyfitter_cfg.c **** 			{0x8Fu, 0x10u},
 425:Generated_Source\PSoC4/cyfitter_cfg.c **** 			{0xC0u, 0x83u},
 426:Generated_Source\PSoC4/cyfitter_cfg.c **** 			{0xC2u, 0x2Eu},
 427:Generated_Source\PSoC4/cyfitter_cfg.c **** 			{0xC4u, 0x20u},
 428:Generated_Source\PSoC4/cyfitter_cfg.c **** 			{0xCAu, 0x22u},
 429:Generated_Source\PSoC4/cyfitter_cfg.c **** 			{0xCCu, 0x4Eu},
ARM GAS  C:\Users\IlyR\AppData\Local\Temp\ccZiKTUc.s 			page 17


 430:Generated_Source\PSoC4/cyfitter_cfg.c **** 			{0xCEu, 0x28u},
 431:Generated_Source\PSoC4/cyfitter_cfg.c **** 			{0xE2u, 0x08u},
 432:Generated_Source\PSoC4/cyfitter_cfg.c **** 			{0xE4u, 0x05u},
 433:Generated_Source\PSoC4/cyfitter_cfg.c **** 			{0xE6u, 0x02u},
 434:Generated_Source\PSoC4/cyfitter_cfg.c **** 			{0x08u, 0x02u},
 435:Generated_Source\PSoC4/cyfitter_cfg.c **** 			{0x09u, 0x01u},
 436:Generated_Source\PSoC4/cyfitter_cfg.c **** 			{0x0Au, 0x01u},
 437:Generated_Source\PSoC4/cyfitter_cfg.c **** 			{0x0Bu, 0x02u},
 438:Generated_Source\PSoC4/cyfitter_cfg.c **** 			{0x14u, 0x01u},
 439:Generated_Source\PSoC4/cyfitter_cfg.c **** 			{0x15u, 0x01u},
 440:Generated_Source\PSoC4/cyfitter_cfg.c **** 			{0x16u, 0x02u},
 441:Generated_Source\PSoC4/cyfitter_cfg.c **** 			{0x17u, 0x02u},
 442:Generated_Source\PSoC4/cyfitter_cfg.c **** 			{0x20u, 0x01u},
 443:Generated_Source\PSoC4/cyfitter_cfg.c **** 			{0x22u, 0x02u},
 444:Generated_Source\PSoC4/cyfitter_cfg.c **** 			{0x29u, 0x01u},
 445:Generated_Source\PSoC4/cyfitter_cfg.c **** 			{0x2Bu, 0x02u},
 446:Generated_Source\PSoC4/cyfitter_cfg.c **** 			{0x31u, 0x03u},
 447:Generated_Source\PSoC4/cyfitter_cfg.c **** 			{0x36u, 0x03u},
 448:Generated_Source\PSoC4/cyfitter_cfg.c **** 			{0x3Eu, 0x40u},
 449:Generated_Source\PSoC4/cyfitter_cfg.c **** 			{0x3Fu, 0x01u},
 450:Generated_Source\PSoC4/cyfitter_cfg.c **** 			{0x40u, 0x45u},
 451:Generated_Source\PSoC4/cyfitter_cfg.c **** 			{0x49u, 0xFFu},
 452:Generated_Source\PSoC4/cyfitter_cfg.c **** 			{0x4Au, 0xFFu},
 453:Generated_Source\PSoC4/cyfitter_cfg.c **** 			{0x4Bu, 0xFFu},
 454:Generated_Source\PSoC4/cyfitter_cfg.c **** 			{0x4Fu, 0x01u},
 455:Generated_Source\PSoC4/cyfitter_cfg.c **** 			{0x50u, 0x18u},
 456:Generated_Source\PSoC4/cyfitter_cfg.c **** 			{0x52u, 0x80u},
 457:Generated_Source\PSoC4/cyfitter_cfg.c **** 			{0x58u, 0x04u},
 458:Generated_Source\PSoC4/cyfitter_cfg.c **** 			{0x59u, 0x04u},
 459:Generated_Source\PSoC4/cyfitter_cfg.c **** 			{0x5Au, 0x04u},
 460:Generated_Source\PSoC4/cyfitter_cfg.c **** 			{0x5Bu, 0x04u},
 461:Generated_Source\PSoC4/cyfitter_cfg.c **** 			{0x5Fu, 0x01u},
 462:Generated_Source\PSoC4/cyfitter_cfg.c **** 			{0x60u, 0x40u},
 463:Generated_Source\PSoC4/cyfitter_cfg.c **** 			{0x62u, 0x40u},
 464:Generated_Source\PSoC4/cyfitter_cfg.c **** 			{0x64u, 0x40u},
 465:Generated_Source\PSoC4/cyfitter_cfg.c **** 			{0x65u, 0x40u},
 466:Generated_Source\PSoC4/cyfitter_cfg.c **** 			{0x66u, 0x80u},
 467:Generated_Source\PSoC4/cyfitter_cfg.c **** 			{0x68u, 0x80u},
 468:Generated_Source\PSoC4/cyfitter_cfg.c **** 			{0x6Au, 0x80u},
 469:Generated_Source\PSoC4/cyfitter_cfg.c **** 			{0x6Cu, 0x80u},
 470:Generated_Source\PSoC4/cyfitter_cfg.c **** 			{0x6Eu, 0x80u},
 471:Generated_Source\PSoC4/cyfitter_cfg.c **** 			{0x82u, 0x01u},
 472:Generated_Source\PSoC4/cyfitter_cfg.c **** 			{0x88u, 0x04u},
 473:Generated_Source\PSoC4/cyfitter_cfg.c **** 			{0x8Au, 0x02u},
 474:Generated_Source\PSoC4/cyfitter_cfg.c **** 			{0x8Eu, 0x01u},
 475:Generated_Source\PSoC4/cyfitter_cfg.c **** 			{0x91u, 0x02u},
 476:Generated_Source\PSoC4/cyfitter_cfg.c **** 			{0x92u, 0x06u},
 477:Generated_Source\PSoC4/cyfitter_cfg.c **** 			{0x93u, 0x01u},
 478:Generated_Source\PSoC4/cyfitter_cfg.c **** 			{0x95u, 0x02u},
 479:Generated_Source\PSoC4/cyfitter_cfg.c **** 			{0x96u, 0x06u},
 480:Generated_Source\PSoC4/cyfitter_cfg.c **** 			{0x97u, 0x01u},
 481:Generated_Source\PSoC4/cyfitter_cfg.c **** 			{0xA0u, 0x02u},
 482:Generated_Source\PSoC4/cyfitter_cfg.c **** 			{0xA2u, 0x04u},
 483:Generated_Source\PSoC4/cyfitter_cfg.c **** 			{0xA8u, 0x02u},
 484:Generated_Source\PSoC4/cyfitter_cfg.c **** 			{0xA9u, 0x01u},
 485:Generated_Source\PSoC4/cyfitter_cfg.c **** 			{0xAAu, 0x04u},
 486:Generated_Source\PSoC4/cyfitter_cfg.c **** 			{0xABu, 0x02u},
ARM GAS  C:\Users\IlyR\AppData\Local\Temp\ccZiKTUc.s 			page 18


 487:Generated_Source\PSoC4/cyfitter_cfg.c **** 			{0xB0u, 0x01u},
 488:Generated_Source\PSoC4/cyfitter_cfg.c **** 			{0xB1u, 0x03u},
 489:Generated_Source\PSoC4/cyfitter_cfg.c **** 			{0xB4u, 0x06u},
 490:Generated_Source\PSoC4/cyfitter_cfg.c **** 			{0xBEu, 0x11u},
 491:Generated_Source\PSoC4/cyfitter_cfg.c **** 			{0xBFu, 0x01u},
 492:Generated_Source\PSoC4/cyfitter_cfg.c **** 			{0xC0u, 0x14u},
 493:Generated_Source\PSoC4/cyfitter_cfg.c **** 			{0xC5u, 0xECu},
 494:Generated_Source\PSoC4/cyfitter_cfg.c **** 			{0xC7u, 0x20u},
 495:Generated_Source\PSoC4/cyfitter_cfg.c **** 			{0xC8u, 0x23u},
 496:Generated_Source\PSoC4/cyfitter_cfg.c **** 			{0xC9u, 0xFFu},
 497:Generated_Source\PSoC4/cyfitter_cfg.c **** 			{0xCAu, 0xFFu},
 498:Generated_Source\PSoC4/cyfitter_cfg.c **** 			{0xCBu, 0xFFu},
 499:Generated_Source\PSoC4/cyfitter_cfg.c **** 			{0xCDu, 0x83u},
 500:Generated_Source\PSoC4/cyfitter_cfg.c **** 			{0xCEu, 0x03u},
 501:Generated_Source\PSoC4/cyfitter_cfg.c **** 			{0xCFu, 0x01u},
 502:Generated_Source\PSoC4/cyfitter_cfg.c **** 			{0xD0u, 0x18u},
 503:Generated_Source\PSoC4/cyfitter_cfg.c **** 			{0xD4u, 0x01u},
 504:Generated_Source\PSoC4/cyfitter_cfg.c **** 			{0xD6u, 0x04u},
 505:Generated_Source\PSoC4/cyfitter_cfg.c **** 			{0xD8u, 0x04u},
 506:Generated_Source\PSoC4/cyfitter_cfg.c **** 			{0xD9u, 0x04u},
 507:Generated_Source\PSoC4/cyfitter_cfg.c **** 			{0xDAu, 0x04u},
 508:Generated_Source\PSoC4/cyfitter_cfg.c **** 			{0xDBu, 0x04u},
 509:Generated_Source\PSoC4/cyfitter_cfg.c **** 			{0xDFu, 0x01u},
 510:Generated_Source\PSoC4/cyfitter_cfg.c **** 			{0xE0u, 0x40u},
 511:Generated_Source\PSoC4/cyfitter_cfg.c **** 			{0xE2u, 0x40u},
 512:Generated_Source\PSoC4/cyfitter_cfg.c **** 			{0xE4u, 0x40u},
 513:Generated_Source\PSoC4/cyfitter_cfg.c **** 			{0xE5u, 0x40u},
 514:Generated_Source\PSoC4/cyfitter_cfg.c **** 			{0xE6u, 0x80u},
 515:Generated_Source\PSoC4/cyfitter_cfg.c **** 			{0xE8u, 0x80u},
 516:Generated_Source\PSoC4/cyfitter_cfg.c **** 			{0xEAu, 0x80u},
 517:Generated_Source\PSoC4/cyfitter_cfg.c **** 			{0xECu, 0x80u},
 518:Generated_Source\PSoC4/cyfitter_cfg.c **** 			{0xEEu, 0x80u},
 519:Generated_Source\PSoC4/cyfitter_cfg.c **** 			{0x02u, 0x02u},
 520:Generated_Source\PSoC4/cyfitter_cfg.c **** 			{0x03u, 0x48u},
 521:Generated_Source\PSoC4/cyfitter_cfg.c **** 			{0x07u, 0x08u},
 522:Generated_Source\PSoC4/cyfitter_cfg.c **** 			{0x0Au, 0xA0u},
 523:Generated_Source\PSoC4/cyfitter_cfg.c **** 			{0x0Fu, 0x20u},
 524:Generated_Source\PSoC4/cyfitter_cfg.c **** 			{0x11u, 0x10u},
 525:Generated_Source\PSoC4/cyfitter_cfg.c **** 			{0x13u, 0x02u},
 526:Generated_Source\PSoC4/cyfitter_cfg.c **** 			{0x17u, 0x03u},
 527:Generated_Source\PSoC4/cyfitter_cfg.c **** 			{0x18u, 0x08u},
 528:Generated_Source\PSoC4/cyfitter_cfg.c **** 			{0x1Au, 0x40u},
 529:Generated_Source\PSoC4/cyfitter_cfg.c **** 			{0x1Fu, 0x40u},
 530:Generated_Source\PSoC4/cyfitter_cfg.c **** 			{0x20u, 0x80u},
 531:Generated_Source\PSoC4/cyfitter_cfg.c **** 			{0x27u, 0x80u},
 532:Generated_Source\PSoC4/cyfitter_cfg.c **** 			{0x2Bu, 0x08u},
 533:Generated_Source\PSoC4/cyfitter_cfg.c **** 			{0x2Fu, 0x08u},
 534:Generated_Source\PSoC4/cyfitter_cfg.c **** 			{0x32u, 0x08u},
 535:Generated_Source\PSoC4/cyfitter_cfg.c **** 			{0x33u, 0x01u},
 536:Generated_Source\PSoC4/cyfitter_cfg.c **** 			{0x36u, 0x08u},
 537:Generated_Source\PSoC4/cyfitter_cfg.c **** 			{0x37u, 0x08u},
 538:Generated_Source\PSoC4/cyfitter_cfg.c **** 			{0x3Du, 0x10u},
 539:Generated_Source\PSoC4/cyfitter_cfg.c **** 			{0x3Fu, 0x20u},
 540:Generated_Source\PSoC4/cyfitter_cfg.c **** 			{0x41u, 0x01u},
 541:Generated_Source\PSoC4/cyfitter_cfg.c **** 			{0x43u, 0x40u},
 542:Generated_Source\PSoC4/cyfitter_cfg.c **** 			{0x46u, 0x80u},
 543:Generated_Source\PSoC4/cyfitter_cfg.c **** 			{0x49u, 0x05u},
ARM GAS  C:\Users\IlyR\AppData\Local\Temp\ccZiKTUc.s 			page 19


 544:Generated_Source\PSoC4/cyfitter_cfg.c **** 			{0x4Eu, 0x02u},
 545:Generated_Source\PSoC4/cyfitter_cfg.c **** 			{0x51u, 0x01u},
 546:Generated_Source\PSoC4/cyfitter_cfg.c **** 			{0x52u, 0x02u},
 547:Generated_Source\PSoC4/cyfitter_cfg.c **** 			{0x59u, 0x05u},
 548:Generated_Source\PSoC4/cyfitter_cfg.c **** 			{0x5Au, 0x40u},
 549:Generated_Source\PSoC4/cyfitter_cfg.c **** 			{0x5Fu, 0x80u},
 550:Generated_Source\PSoC4/cyfitter_cfg.c **** 			{0x61u, 0x02u},
 551:Generated_Source\PSoC4/cyfitter_cfg.c **** 			{0x76u, 0x80u},
 552:Generated_Source\PSoC4/cyfitter_cfg.c **** 			{0x77u, 0x40u},
 553:Generated_Source\PSoC4/cyfitter_cfg.c **** 			{0x80u, 0x04u},
 554:Generated_Source\PSoC4/cyfitter_cfg.c **** 			{0x84u, 0x40u},
 555:Generated_Source\PSoC4/cyfitter_cfg.c **** 			{0x87u, 0x40u},
 556:Generated_Source\PSoC4/cyfitter_cfg.c **** 			{0x8Au, 0x80u},
 557:Generated_Source\PSoC4/cyfitter_cfg.c **** 			{0x8Bu, 0x04u},
 558:Generated_Source\PSoC4/cyfitter_cfg.c **** 			{0x92u, 0xA0u},
 559:Generated_Source\PSoC4/cyfitter_cfg.c **** 			{0x93u, 0x04u},
 560:Generated_Source\PSoC4/cyfitter_cfg.c **** 			{0x9Bu, 0x01u},
 561:Generated_Source\PSoC4/cyfitter_cfg.c **** 			{0xA2u, 0x88u},
 562:Generated_Source\PSoC4/cyfitter_cfg.c **** 			{0xA3u, 0x18u},
 563:Generated_Source\PSoC4/cyfitter_cfg.c **** 			{0xA5u, 0x02u},
 564:Generated_Source\PSoC4/cyfitter_cfg.c **** 			{0xADu, 0x02u},
 565:Generated_Source\PSoC4/cyfitter_cfg.c **** 			{0xB2u, 0x04u},
 566:Generated_Source\PSoC4/cyfitter_cfg.c **** 			{0xB7u, 0x20u},
 567:Generated_Source\PSoC4/cyfitter_cfg.c **** 			{0xC0u, 0x4Bu},
 568:Generated_Source\PSoC4/cyfitter_cfg.c **** 			{0xC2u, 0x2Cu},
 569:Generated_Source\PSoC4/cyfitter_cfg.c **** 			{0xC4u, 0x1Au},
 570:Generated_Source\PSoC4/cyfitter_cfg.c **** 			{0xCAu, 0x24u},
 571:Generated_Source\PSoC4/cyfitter_cfg.c **** 			{0xCCu, 0x43u},
 572:Generated_Source\PSoC4/cyfitter_cfg.c **** 			{0xCEu, 0x20u},
 573:Generated_Source\PSoC4/cyfitter_cfg.c **** 			{0xD0u, 0x89u},
 574:Generated_Source\PSoC4/cyfitter_cfg.c **** 			{0xD2u, 0x10u},
 575:Generated_Source\PSoC4/cyfitter_cfg.c **** 			{0xD6u, 0x1Bu},
 576:Generated_Source\PSoC4/cyfitter_cfg.c **** 			{0xD8u, 0x01u},
 577:Generated_Source\PSoC4/cyfitter_cfg.c **** 			{0xE0u, 0x0Au},
 578:Generated_Source\PSoC4/cyfitter_cfg.c **** 			{0xE2u, 0x80u},
 579:Generated_Source\PSoC4/cyfitter_cfg.c **** 			{0xE4u, 0x01u},
 580:Generated_Source\PSoC4/cyfitter_cfg.c **** 			{0xE6u, 0x40u},
 581:Generated_Source\PSoC4/cyfitter_cfg.c **** 			{0xEAu, 0x40u},
 582:Generated_Source\PSoC4/cyfitter_cfg.c **** 			{0x37u, 0x20u},
 583:Generated_Source\PSoC4/cyfitter_cfg.c **** 			{0x57u, 0x80u},
 584:Generated_Source\PSoC4/cyfitter_cfg.c **** 			{0x66u, 0x01u},
 585:Generated_Source\PSoC4/cyfitter_cfg.c **** 			{0x6Cu, 0x02u},
 586:Generated_Source\PSoC4/cyfitter_cfg.c **** 			{0x73u, 0x04u},
 587:Generated_Source\PSoC4/cyfitter_cfg.c **** 			{0x82u, 0x01u},
 588:Generated_Source\PSoC4/cyfitter_cfg.c **** 			{0x83u, 0x24u},
 589:Generated_Source\PSoC4/cyfitter_cfg.c **** 			{0xCCu, 0x20u},
 590:Generated_Source\PSoC4/cyfitter_cfg.c **** 			{0xD4u, 0x40u},
 591:Generated_Source\PSoC4/cyfitter_cfg.c **** 			{0xD8u, 0x80u},
 592:Generated_Source\PSoC4/cyfitter_cfg.c **** 			{0xDAu, 0x80u},
 593:Generated_Source\PSoC4/cyfitter_cfg.c **** 			{0xDCu, 0x20u},
 594:Generated_Source\PSoC4/cyfitter_cfg.c **** 			{0xE2u, 0xA0u},
 595:Generated_Source\PSoC4/cyfitter_cfg.c **** 			{0xE4u, 0x20u},
 596:Generated_Source\PSoC4/cyfitter_cfg.c **** 			{0x1Bu, 0x04u},
 597:Generated_Source\PSoC4/cyfitter_cfg.c **** 			{0x48u, 0x01u},
 598:Generated_Source\PSoC4/cyfitter_cfg.c **** 			{0x88u, 0x01u},
 599:Generated_Source\PSoC4/cyfitter_cfg.c **** 			{0x8Cu, 0x02u},
 600:Generated_Source\PSoC4/cyfitter_cfg.c **** 			{0xA4u, 0x02u},
ARM GAS  C:\Users\IlyR\AppData\Local\Temp\ccZiKTUc.s 			page 20


 601:Generated_Source\PSoC4/cyfitter_cfg.c **** 			{0xA7u, 0x04u},
 602:Generated_Source\PSoC4/cyfitter_cfg.c **** 			{0xAFu, 0x04u},
 603:Generated_Source\PSoC4/cyfitter_cfg.c **** 			{0xB7u, 0x80u},
 604:Generated_Source\PSoC4/cyfitter_cfg.c **** 			{0xC6u, 0x10u},
 605:Generated_Source\PSoC4/cyfitter_cfg.c **** 			{0xD2u, 0x10u},
 606:Generated_Source\PSoC4/cyfitter_cfg.c **** 			{0xEAu, 0x40u},
 607:Generated_Source\PSoC4/cyfitter_cfg.c **** 			{0x00u, 0x10u},
 608:Generated_Source\PSoC4/cyfitter_cfg.c **** 			{0x07u, 0x08u},
 609:Generated_Source\PSoC4/cyfitter_cfg.c **** 			{0x0Bu, 0x20u},
 610:Generated_Source\PSoC4/cyfitter_cfg.c **** 			{0x34u, 0x02u},
 611:Generated_Source\PSoC4/cyfitter_cfg.c **** 			{0x66u, 0x02u},
 612:Generated_Source\PSoC4/cyfitter_cfg.c **** 			{0x69u, 0x40u},
 613:Generated_Source\PSoC4/cyfitter_cfg.c **** 			{0x6Fu, 0x80u},
 614:Generated_Source\PSoC4/cyfitter_cfg.c **** 			{0x81u, 0x40u},
 615:Generated_Source\PSoC4/cyfitter_cfg.c **** 			{0x83u, 0x10u},
 616:Generated_Source\PSoC4/cyfitter_cfg.c **** 			{0x87u, 0x18u},
 617:Generated_Source\PSoC4/cyfitter_cfg.c **** 			{0x88u, 0x02u},
 618:Generated_Source\PSoC4/cyfitter_cfg.c **** 			{0x8Cu, 0x50u},
 619:Generated_Source\PSoC4/cyfitter_cfg.c **** 			{0xC0u, 0x03u},
 620:Generated_Source\PSoC4/cyfitter_cfg.c **** 			{0xC2u, 0x08u},
 621:Generated_Source\PSoC4/cyfitter_cfg.c **** 			{0xCCu, 0x01u},
 622:Generated_Source\PSoC4/cyfitter_cfg.c **** 			{0xD8u, 0x01u},
 623:Generated_Source\PSoC4/cyfitter_cfg.c **** 			{0xDAu, 0x02u},
 624:Generated_Source\PSoC4/cyfitter_cfg.c **** 			{0xDCu, 0x02u},
 625:Generated_Source\PSoC4/cyfitter_cfg.c **** 			{0xE0u, 0x04u},
 626:Generated_Source\PSoC4/cyfitter_cfg.c **** 			{0xE2u, 0x0Au},
 627:Generated_Source\PSoC4/cyfitter_cfg.c **** 			{0x18u, 0x40u},
 628:Generated_Source\PSoC4/cyfitter_cfg.c **** 			{0x2Bu, 0x40u},
 629:Generated_Source\PSoC4/cyfitter_cfg.c **** 			{0x34u, 0x02u},
 630:Generated_Source\PSoC4/cyfitter_cfg.c **** 			{0x5Bu, 0x01u},
 631:Generated_Source\PSoC4/cyfitter_cfg.c **** 			{0x5Fu, 0x04u},
 632:Generated_Source\PSoC4/cyfitter_cfg.c **** 			{0x60u, 0x10u},
 633:Generated_Source\PSoC4/cyfitter_cfg.c **** 			{0x67u, 0x10u},
 634:Generated_Source\PSoC4/cyfitter_cfg.c **** 			{0x7Bu, 0x10u},
 635:Generated_Source\PSoC4/cyfitter_cfg.c **** 			{0x80u, 0x10u},
 636:Generated_Source\PSoC4/cyfitter_cfg.c **** 			{0x87u, 0x14u},
 637:Generated_Source\PSoC4/cyfitter_cfg.c **** 			{0x8Bu, 0x01u},
 638:Generated_Source\PSoC4/cyfitter_cfg.c **** 			{0x8Fu, 0x40u},
 639:Generated_Source\PSoC4/cyfitter_cfg.c **** 			{0x94u, 0x40u},
 640:Generated_Source\PSoC4/cyfitter_cfg.c **** 			{0x98u, 0x02u},
 641:Generated_Source\PSoC4/cyfitter_cfg.c **** 			{0xA3u, 0x10u},
 642:Generated_Source\PSoC4/cyfitter_cfg.c **** 			{0xB2u, 0x02u},
 643:Generated_Source\PSoC4/cyfitter_cfg.c **** 			{0xB7u, 0x80u},
 644:Generated_Source\PSoC4/cyfitter_cfg.c **** 			{0xC6u, 0x08u},
 645:Generated_Source\PSoC4/cyfitter_cfg.c **** 			{0xCAu, 0x02u},
 646:Generated_Source\PSoC4/cyfitter_cfg.c **** 			{0xCCu, 0x01u},
 647:Generated_Source\PSoC4/cyfitter_cfg.c **** 			{0xD6u, 0x03u},
 648:Generated_Source\PSoC4/cyfitter_cfg.c **** 			{0xD8u, 0x03u},
 649:Generated_Source\PSoC4/cyfitter_cfg.c **** 			{0xDEu, 0x02u},
 650:Generated_Source\PSoC4/cyfitter_cfg.c **** 			{0xE4u, 0x04u},
 651:Generated_Source\PSoC4/cyfitter_cfg.c **** 			{0xE6u, 0x02u},
 652:Generated_Source\PSoC4/cyfitter_cfg.c **** 			{0xE8u, 0x03u},
 653:Generated_Source\PSoC4/cyfitter_cfg.c **** 			{0x10u, 0x01u},
 654:Generated_Source\PSoC4/cyfitter_cfg.c **** 			{0x11u, 0x01u},
 655:Generated_Source\PSoC4/cyfitter_cfg.c **** 		};
 656:Generated_Source\PSoC4/cyfitter_cfg.c **** 
 657:Generated_Source\PSoC4/cyfitter_cfg.c **** 
ARM GAS  C:\Users\IlyR\AppData\Local\Temp\ccZiKTUc.s 			page 21


 658:Generated_Source\PSoC4/cyfitter_cfg.c **** 
 659:Generated_Source\PSoC4/cyfitter_cfg.c **** 		CYPACKED typedef struct {
 660:Generated_Source\PSoC4/cyfitter_cfg.c **** 			void CYFAR *address;
 661:Generated_Source\PSoC4/cyfitter_cfg.c **** 			uint16 size;
 662:Generated_Source\PSoC4/cyfitter_cfg.c **** 		} CYPACKED_ATTR cfg_memset_t;
 663:Generated_Source\PSoC4/cyfitter_cfg.c **** 
 664:Generated_Source\PSoC4/cyfitter_cfg.c **** 		static const cfg_memset_t CYCODE cfg_memset_list[] = {
 665:Generated_Source\PSoC4/cyfitter_cfg.c **** 			/* address, size */
 666:Generated_Source\PSoC4/cyfitter_cfg.c **** 			{(void CYFAR *)(CYDEV_UDB_P0_U0_BASE), 1024u},
 667:Generated_Source\PSoC4/cyfitter_cfg.c **** 			{(void CYFAR *)(CYDEV_UDB_DSI0_BASE), 1024u},
 668:Generated_Source\PSoC4/cyfitter_cfg.c **** 		};
 669:Generated_Source\PSoC4/cyfitter_cfg.c **** 
 670:Generated_Source\PSoC4/cyfitter_cfg.c **** 		uint8 CYDATA i;
 671:Generated_Source\PSoC4/cyfitter_cfg.c **** 
 672:Generated_Source\PSoC4/cyfitter_cfg.c **** 		/* Zero out critical memory blocks before beginning configuration */
 673:Generated_Source\PSoC4/cyfitter_cfg.c **** 		for (i = 0u; i < (sizeof(cfg_memset_list)/sizeof(cfg_memset_list[0])); i++)
 481              		.loc 1 673 0
 482 00c6 FB1D     		adds	r3, r7, #7
 483 00c8 0022     		movs	r2, #0
 484 00ca 1A70     		strb	r2, [r3]
 485 00cc 22E0     		b	.L21
 486              	.L22:
 487              	.LBB4:
 674:Generated_Source\PSoC4/cyfitter_cfg.c **** 		{
 675:Generated_Source\PSoC4/cyfitter_cfg.c **** 			const cfg_memset_t CYCODE * CYDATA ms = &cfg_memset_list[i];
 488              		.loc 1 675 0 discriminator 3
 489 00ce FB1D     		adds	r3, r7, #7
 490 00d0 1A78     		ldrb	r2, [r3]
 491 00d2 1300     		movs	r3, r2
 492 00d4 5B00     		lsls	r3, r3, #1
 493 00d6 9B18     		adds	r3, r3, r2
 494 00d8 5B00     		lsls	r3, r3, #1
 495 00da 584A     		ldr	r2, .L23+4
 496 00dc 9B18     		adds	r3, r3, r2
 497 00de 3B60     		str	r3, [r7]
 676:Generated_Source\PSoC4/cyfitter_cfg.c **** 			CYMEMZERO(ms->address, (size_t)(uint32)(ms->size));
 498              		.loc 1 676 0 discriminator 3
 499 00e0 3B68     		ldr	r3, [r7]
 500 00e2 1A78     		ldrb	r2, [r3]
 501 00e4 5978     		ldrb	r1, [r3, #1]
 502 00e6 0902     		lsls	r1, r1, #8
 503 00e8 0A43     		orrs	r2, r1
 504 00ea 9978     		ldrb	r1, [r3, #2]
 505 00ec 0904     		lsls	r1, r1, #16
 506 00ee 0A43     		orrs	r2, r1
 507 00f0 DB78     		ldrb	r3, [r3, #3]
 508 00f2 1B06     		lsls	r3, r3, #24
 509 00f4 1343     		orrs	r3, r2
 510 00f6 1800     		movs	r0, r3
 511 00f8 3B68     		ldr	r3, [r7]
 512 00fa 1A79     		ldrb	r2, [r3, #4]
 513 00fc 5B79     		ldrb	r3, [r3, #5]
 514 00fe 1B02     		lsls	r3, r3, #8
 515 0100 1343     		orrs	r3, r2
 516 0102 9BB2     		uxth	r3, r3
 517 0104 1900     		movs	r1, r3
 518 0106 FFF7FEFF 		bl	CYMEMZERO
ARM GAS  C:\Users\IlyR\AppData\Local\Temp\ccZiKTUc.s 			page 22


 519              	.LBE4:
 673:Generated_Source\PSoC4/cyfitter_cfg.c **** 		{
 520              		.loc 1 673 0 discriminator 3
 521 010a FB1D     		adds	r3, r7, #7
 522 010c 1A78     		ldrb	r2, [r3]
 523 010e FB1D     		adds	r3, r7, #7
 524 0110 0132     		adds	r2, r2, #1
 525 0112 1A70     		strb	r2, [r3]
 526              	.L21:
 673:Generated_Source\PSoC4/cyfitter_cfg.c **** 		{
 527              		.loc 1 673 0 is_stmt 0 discriminator 1
 528 0114 FB1D     		adds	r3, r7, #7
 529 0116 1B78     		ldrb	r3, [r3]
 530 0118 012B     		cmp	r3, #1
 531 011a D8D9     		bls	.L22
 677:Generated_Source\PSoC4/cyfitter_cfg.c **** 		}
 678:Generated_Source\PSoC4/cyfitter_cfg.c **** 
 679:Generated_Source\PSoC4/cyfitter_cfg.c **** 		cfg_write_bytes32(cy_cfg_addr_table, cy_cfg_data_table);
 532              		.loc 1 679 0 is_stmt 1
 533 011c 484A     		ldr	r2, .L23+8
 534 011e 494B     		ldr	r3, .L23+12
 535 0120 1100     		movs	r1, r2
 536 0122 1800     		movs	r0, r3
 537 0124 FFF7FEFF 		bl	cfg_write_bytes32
 680:Generated_Source\PSoC4/cyfitter_cfg.c **** 
 681:Generated_Source\PSoC4/cyfitter_cfg.c **** 		/* Perform normal device configuration. Order is not critical for these items. */
 682:Generated_Source\PSoC4/cyfitter_cfg.c **** 		CY_SET_REG16((void *)(CYREG_UDB_BCTL0_DRV), 0x0100u);
 538              		.loc 1 682 0
 539 0128 474B     		ldr	r3, .L23+16
 540 012a 8022     		movs	r2, #128
 541 012c 5200     		lsls	r2, r2, #1
 542 012e 1A80     		strh	r2, [r3]
 683:Generated_Source\PSoC4/cyfitter_cfg.c **** 		CY_SET_REG8((void *)(CYREG_UDB_BCTL0_DRV + 0x2u), 0x01u);
 543              		.loc 1 683 0
 544 0130 464B     		ldr	r3, .L23+20
 545 0132 0122     		movs	r2, #1
 546 0134 1A70     		strb	r2, [r3]
 684:Generated_Source\PSoC4/cyfitter_cfg.c **** 
 685:Generated_Source\PSoC4/cyfitter_cfg.c **** 		/* HSIOM Starting address: CYDEV_HSIOM_BASE */
 686:Generated_Source\PSoC4/cyfitter_cfg.c **** 		CY_SET_REG32((void *)(CYDEV_HSIOM_BASE), 0x02000060u);
 547              		.loc 1 686 0
 548 0136 464B     		ldr	r3, .L23+24
 549 0138 464A     		ldr	r2, .L23+28
 550 013a 1A60     		str	r2, [r3]
 687:Generated_Source\PSoC4/cyfitter_cfg.c **** 		CY_SET_REG32((void *)(CYREG_HSIOM_PORT_SEL2), 0x20000000u);
 551              		.loc 1 687 0
 552 013c 464B     		ldr	r3, .L23+32
 553 013e 8022     		movs	r2, #128
 554 0140 9205     		lsls	r2, r2, #22
 555 0142 1A60     		str	r2, [r3]
 688:Generated_Source\PSoC4/cyfitter_cfg.c **** 		CY_SET_REG32((void *)(CYREG_HSIOM_PORT_SEL3), 0x2222EE00u);
 556              		.loc 1 688 0
 557 0144 454B     		ldr	r3, .L23+36
 558 0146 464A     		ldr	r2, .L23+40
 559 0148 1A60     		str	r2, [r3]
 689:Generated_Source\PSoC4/cyfitter_cfg.c **** 		CY_SET_REG32((void *)(CYREG_HSIOM_PORT_SEL4), 0x00000099u);
 560              		.loc 1 689 0
ARM GAS  C:\Users\IlyR\AppData\Local\Temp\ccZiKTUc.s 			page 23


 561 014a 464B     		ldr	r3, .L23+44
 562 014c 9922     		movs	r2, #153
 563 014e 1A60     		str	r2, [r3]
 690:Generated_Source\PSoC4/cyfitter_cfg.c **** 
 691:Generated_Source\PSoC4/cyfitter_cfg.c **** 		/* UDB_PA_0 Starting address: CYDEV_UDB_PA0_BASE */
 692:Generated_Source\PSoC4/cyfitter_cfg.c **** 		CY_SET_REG32((void *)(CYDEV_UDB_PA0_BASE), 0x00990000u);
 564              		.loc 1 692 0
 565 0150 454B     		ldr	r3, .L23+48
 566 0152 9922     		movs	r2, #153
 567 0154 1204     		lsls	r2, r2, #16
 568 0156 1A60     		str	r2, [r3]
 693:Generated_Source\PSoC4/cyfitter_cfg.c **** 		CY_SET_REG32((void *)(CYREG_UDB_PA0_CFG4), 0x00800000u);
 569              		.loc 1 693 0
 570 0158 444B     		ldr	r3, .L23+52
 571 015a 8022     		movs	r2, #128
 572 015c 1204     		lsls	r2, r2, #16
 573 015e 1A60     		str	r2, [r3]
 694:Generated_Source\PSoC4/cyfitter_cfg.c **** 		CY_SET_REG32((void *)(CYREG_UDB_PA0_CFG8), 0x30040000u);
 574              		.loc 1 694 0
 575 0160 434B     		ldr	r3, .L23+56
 576 0162 444A     		ldr	r2, .L23+60
 577 0164 1A60     		str	r2, [r3]
 695:Generated_Source\PSoC4/cyfitter_cfg.c **** 		CY_SET_REG32((void *)(CYREG_UDB_PA0_CFG12), 0x00001000u);
 578              		.loc 1 695 0
 579 0166 444B     		ldr	r3, .L23+64
 580 0168 8022     		movs	r2, #128
 581 016a 5201     		lsls	r2, r2, #5
 582 016c 1A60     		str	r2, [r3]
 696:Generated_Source\PSoC4/cyfitter_cfg.c **** 
 697:Generated_Source\PSoC4/cyfitter_cfg.c **** 		/* UDB_PA_1 Starting address: CYDEV_UDB_PA1_BASE */
 698:Generated_Source\PSoC4/cyfitter_cfg.c **** 		CY_SET_REG32((void *)(CYDEV_UDB_PA1_BASE), 0x00990000u);
 583              		.loc 1 698 0
 584 016e 434B     		ldr	r3, .L23+68
 585 0170 9922     		movs	r2, #153
 586 0172 1204     		lsls	r2, r2, #16
 587 0174 1A60     		str	r2, [r3]
 699:Generated_Source\PSoC4/cyfitter_cfg.c **** 
 700:Generated_Source\PSoC4/cyfitter_cfg.c **** 		/* UDB_PA_2 Starting address: CYDEV_UDB_PA2_BASE */
 701:Generated_Source\PSoC4/cyfitter_cfg.c **** 		CY_SET_REG32((void *)(CYDEV_UDB_PA2_BASE), 0x00990000u);
 588              		.loc 1 701 0
 589 0176 424B     		ldr	r3, .L23+72
 590 0178 9922     		movs	r2, #153
 591 017a 1204     		lsls	r2, r2, #16
 592 017c 1A60     		str	r2, [r3]
 702:Generated_Source\PSoC4/cyfitter_cfg.c **** 		CY_SET_REG32((void *)(CYREG_UDB_PA2_CFG8), 0xC0000000u);
 593              		.loc 1 702 0
 594 017e 414B     		ldr	r3, .L23+76
 595 0180 C022     		movs	r2, #192
 596 0182 1206     		lsls	r2, r2, #24
 597 0184 1A60     		str	r2, [r3]
 703:Generated_Source\PSoC4/cyfitter_cfg.c **** 		CY_SET_REG32((void *)(CYREG_UDB_PA2_CFG12), 0x0000C000u);
 598              		.loc 1 703 0
 599 0186 404B     		ldr	r3, .L23+80
 600 0188 C022     		movs	r2, #192
 601 018a 1202     		lsls	r2, r2, #8
 602 018c 1A60     		str	r2, [r3]
 704:Generated_Source\PSoC4/cyfitter_cfg.c **** 
ARM GAS  C:\Users\IlyR\AppData\Local\Temp\ccZiKTUc.s 			page 24


 705:Generated_Source\PSoC4/cyfitter_cfg.c **** 		/* UDB_PA_3 Starting address: CYDEV_UDB_PA3_BASE */
 706:Generated_Source\PSoC4/cyfitter_cfg.c **** 		CY_SET_REG32((void *)(CYDEV_UDB_PA3_BASE), 0x00990000u);
 603              		.loc 1 706 0
 604 018e 3F4B     		ldr	r3, .L23+84
 605 0190 9922     		movs	r2, #153
 606 0192 1204     		lsls	r2, r2, #16
 607 0194 1A60     		str	r2, [r3]
 707:Generated_Source\PSoC4/cyfitter_cfg.c **** 		CY_SET_REG32((void *)(CYREG_UDB_PA3_CFG8), 0x1E000000u);
 608              		.loc 1 707 0
 609 0196 3E4B     		ldr	r3, .L23+88
 610 0198 F022     		movs	r2, #240
 611 019a 5205     		lsls	r2, r2, #21
 612 019c 1A60     		str	r2, [r3]
 708:Generated_Source\PSoC4/cyfitter_cfg.c **** 		CY_SET_REG32((void *)(CYREG_UDB_PA3_CFG12), 0x0000FF00u);
 613              		.loc 1 708 0
 614 019e 3D4B     		ldr	r3, .L23+92
 615 01a0 FF22     		movs	r2, #255
 616 01a2 1202     		lsls	r2, r2, #8
 617 01a4 1A60     		str	r2, [r3]
 709:Generated_Source\PSoC4/cyfitter_cfg.c **** 
 710:Generated_Source\PSoC4/cyfitter_cfg.c **** 		/* TCPWM_CNT1 Starting address: CYDEV_TCPWM_CNT1_TR_CTRL0 */
 711:Generated_Source\PSoC4/cyfitter_cfg.c **** 		CY_SET_REG32((void *)(CYREG_TCPWM_CNT1_TR_CTRL0), 0x0000008Eu);
 618              		.loc 1 711 0
 619 01a6 3C4B     		ldr	r3, .L23+96
 620 01a8 8E22     		movs	r2, #142
 621 01aa 1A60     		str	r2, [r3]
 712:Generated_Source\PSoC4/cyfitter_cfg.c **** 
 713:Generated_Source\PSoC4/cyfitter_cfg.c **** 		/* INT_SELECT Starting address: CYDEV_CPUSS_INTR_SELECT */
 714:Generated_Source\PSoC4/cyfitter_cfg.c **** 		CY_SET_REG32((void *)(CYREG_CPUSS_INTR_SELECT), 0x00000005u);
 622              		.loc 1 714 0
 623 01ac 3B4B     		ldr	r3, .L23+100
 624 01ae 0522     		movs	r2, #5
 625 01b0 1A60     		str	r2, [r3]
 715:Generated_Source\PSoC4/cyfitter_cfg.c **** 
 716:Generated_Source\PSoC4/cyfitter_cfg.c **** 		/* INT_CONFIG Starting address: CYDEV_UDB_INT_CFG */
 717:Generated_Source\PSoC4/cyfitter_cfg.c **** 		CY_SET_REG32((void *)(CYREG_UDB_INT_CFG), 0x00000006u);
 626              		.loc 1 717 0
 627 01b2 3B4B     		ldr	r3, .L23+104
 628 01b4 0622     		movs	r2, #6
 629 01b6 1A60     		str	r2, [r3]
 718:Generated_Source\PSoC4/cyfitter_cfg.c **** 
 719:Generated_Source\PSoC4/cyfitter_cfg.c **** 		/* Enable UDB array and digital routing */
 720:Generated_Source\PSoC4/cyfitter_cfg.c **** 		CY_SET_XTND_REG8((void *)CYREG_UDB_UDBIF_WAIT_CFG, (uint8)((CY_GET_XTND_REG8((void *)CYREG_UDB_UD
 630              		.loc 1 720 0
 631 01b8 3A4A     		ldr	r2, .L23+108
 632 01ba 3A4B     		ldr	r3, .L23+108
 633 01bc 1B78     		ldrb	r3, [r3]
 634 01be DBB2     		uxtb	r3, r3
 635 01c0 3C21     		movs	r1, #60
 636 01c2 8B43     		bics	r3, r1
 637 01c4 DBB2     		uxtb	r3, r3
 638 01c6 1421     		movs	r1, #20
 639 01c8 0B43     		orrs	r3, r1
 640 01ca DBB2     		uxtb	r3, r3
 641 01cc 1370     		strb	r3, [r2]
 721:Generated_Source\PSoC4/cyfitter_cfg.c **** 		CY_SET_XTND_REG8((void *)CYREG_UDB_UDBIF_BANK_CTL, (uint8)(CY_GET_XTND_REG8((void *)CYREG_UDB_UDB
 642              		.loc 1 721 0
ARM GAS  C:\Users\IlyR\AppData\Local\Temp\ccZiKTUc.s 			page 25


 643 01ce 364A     		ldr	r2, .L23+112
 644 01d0 354B     		ldr	r3, .L23+112
 645 01d2 1B78     		ldrb	r3, [r3]
 646 01d4 DBB2     		uxtb	r3, r3
 647 01d6 1621     		movs	r1, #22
 648 01d8 0B43     		orrs	r3, r1
 649 01da DBB2     		uxtb	r3, r3
 650 01dc 1370     		strb	r3, [r2]
 651              	.LBE3:
 722:Generated_Source\PSoC4/cyfitter_cfg.c **** 	}
 723:Generated_Source\PSoC4/cyfitter_cfg.c **** 
 724:Generated_Source\PSoC4/cyfitter_cfg.c **** 	/* Perform second pass device configuration. These items must be configured in specific order afte
 725:Generated_Source\PSoC4/cyfitter_cfg.c **** 	/* IOPINS0_0 Starting address: CYDEV_PRT0_BASE */
 726:Generated_Source\PSoC4/cyfitter_cfg.c **** 	CY_SET_REG32((void *)(CYDEV_PRT0_BASE), 0x0000004Fu);
 652              		.loc 1 726 0
 653 01de 334B     		ldr	r3, .L23+116
 654 01e0 4F22     		movs	r2, #79
 655 01e2 1A60     		str	r2, [r3]
 727:Generated_Source\PSoC4/cyfitter_cfg.c **** 	CY_SET_REG32((void *)(CYREG_PRT0_PC), 0x00180580u);
 656              		.loc 1 727 0
 657 01e4 324B     		ldr	r3, .L23+120
 658 01e6 334A     		ldr	r2, .L23+124
 659 01e8 1A60     		str	r2, [r3]
 728:Generated_Source\PSoC4/cyfitter_cfg.c **** 	CY_SET_REG32((void *)(CYREG_PRT0_PC2), 0x00000003u);
 660              		.loc 1 728 0
 661 01ea 334B     		ldr	r3, .L23+128
 662 01ec 0322     		movs	r2, #3
 663 01ee 1A60     		str	r2, [r3]
 729:Generated_Source\PSoC4/cyfitter_cfg.c **** 
 730:Generated_Source\PSoC4/cyfitter_cfg.c **** 	/* IOPINS0_1 Starting address: CYDEV_PRT1_BASE */
 731:Generated_Source\PSoC4/cyfitter_cfg.c **** 	CY_SET_REG32((void *)(CYREG_PRT1_PC2), 0x00000080u);
 664              		.loc 1 731 0
 665 01f0 324B     		ldr	r3, .L23+132
 666 01f2 8022     		movs	r2, #128
 667 01f4 1A60     		str	r2, [r3]
 732:Generated_Source\PSoC4/cyfitter_cfg.c **** 
 733:Generated_Source\PSoC4/cyfitter_cfg.c **** 	/* IOPINS0_2 Starting address: CYDEV_PRT2_BASE */
 734:Generated_Source\PSoC4/cyfitter_cfg.c **** 	CY_SET_REG32((void *)(CYDEV_PRT2_BASE), 0x000000DEu);
 668              		.loc 1 734 0
 669 01f6 324B     		ldr	r3, .L23+136
 670 01f8 DE22     		movs	r2, #222
 671 01fa 1A60     		str	r2, [r3]
 735:Generated_Source\PSoC4/cyfitter_cfg.c **** 	CY_SET_REG32((void *)(CYREG_PRT2_PC), 0x00C02480u);
 672              		.loc 1 735 0
 673 01fc 314B     		ldr	r3, .L23+140
 674 01fe 324A     		ldr	r2, .L23+144
 675 0200 1A60     		str	r2, [r3]
 736:Generated_Source\PSoC4/cyfitter_cfg.c **** 	CY_SET_REG32((void *)(CYREG_PRT2_PC2), 0x00000042u);
 676              		.loc 1 736 0
 677 0202 324B     		ldr	r3, .L23+148
 678 0204 4222     		movs	r2, #66
 679 0206 1A60     		str	r2, [r3]
 737:Generated_Source\PSoC4/cyfitter_cfg.c **** 
 738:Generated_Source\PSoC4/cyfitter_cfg.c **** 	/* IOPINS0_3 Starting address: CYDEV_PRT3_BASE */
 739:Generated_Source\PSoC4/cyfitter_cfg.c **** 	CY_SET_REG32((void *)(CYDEV_PRT3_BASE), 0x000000F0u);
 680              		.loc 1 739 0
 681 0208 314B     		ldr	r3, .L23+152
ARM GAS  C:\Users\IlyR\AppData\Local\Temp\ccZiKTUc.s 			page 26


 682 020a F022     		movs	r2, #240
 683 020c 1A60     		str	r2, [r3]
 740:Generated_Source\PSoC4/cyfitter_cfg.c **** 	CY_SET_REG32((void *)(CYREG_PRT3_PC), 0x00DB6D80u);
 684              		.loc 1 740 0
 685 020e 314B     		ldr	r3, .L23+156
 686 0210 314A     		ldr	r2, .L23+160
 687 0212 1A60     		str	r2, [r3]
 741:Generated_Source\PSoC4/cyfitter_cfg.c **** 
 742:Generated_Source\PSoC4/cyfitter_cfg.c **** 	/* IOPINS0_4 Starting address: CYDEV_PRT4_BASE */
 743:Generated_Source\PSoC4/cyfitter_cfg.c **** 	CY_SET_REG32((void *)(CYDEV_PRT4_BASE), 0x00000002u);
 688              		.loc 1 743 0
 689 0214 314B     		ldr	r3, .L23+164
 690 0216 0222     		movs	r2, #2
 691 0218 1A60     		str	r2, [r3]
 744:Generated_Source\PSoC4/cyfitter_cfg.c **** 	CY_SET_REG32((void *)(CYREG_PRT4_PC), 0x00000031u);
 692              		.loc 1 744 0
 693 021a 314B     		ldr	r3, .L23+168
 694 021c 3122     		movs	r2, #49
 695 021e 1A60     		str	r2, [r3]
 745:Generated_Source\PSoC4/cyfitter_cfg.c **** 	CY_SET_REG32((void *)(CYREG_PRT4_PC2), 0x00000002u);
 696              		.loc 1 745 0
 697 0220 304B     		ldr	r3, .L23+172
 698 0222 0222     		movs	r2, #2
 699 0224 1A60     		str	r2, [r3]
 746:Generated_Source\PSoC4/cyfitter_cfg.c **** 
 747:Generated_Source\PSoC4/cyfitter_cfg.c **** 
 748:Generated_Source\PSoC4/cyfitter_cfg.c **** 	/* Setup clocks based on selections from Clock DWR */
 749:Generated_Source\PSoC4/cyfitter_cfg.c **** 	ClockSetup();
 700              		.loc 1 749 0
 701 0226 FFF7EBFE 		bl	ClockSetup
 750:Generated_Source\PSoC4/cyfitter_cfg.c **** 
 751:Generated_Source\PSoC4/cyfitter_cfg.c **** 	/* Perform basic analog initialization to defaults */
 752:Generated_Source\PSoC4/cyfitter_cfg.c **** 	AnalogSetDefault();
 702              		.loc 1 752 0
 703 022a FFF7FEFF 		bl	AnalogSetDefault
 753:Generated_Source\PSoC4/cyfitter_cfg.c **** 
 754:Generated_Source\PSoC4/cyfitter_cfg.c **** }
 704              		.loc 1 754 0
 705 022e C046     		nop
 706 0230 BD46     		mov	sp, r7
 707 0232 02B0     		add	sp, sp, #8
 708              		@ sp needed
 709 0234 80BD     		pop	{r7, pc}
 710              	.L24:
 711 0236 C046     		.align	2
 712              	.L23:
 713 0238 1C700F40 		.word	1074753564
 714 023c 00000000 		.word	cfg_memset_list.4876
 715 0240 34000000 		.word	cy_cfg_data_table.4871
 716 0244 0C000000 		.word	cy_cfg_addr_table.4870
 717 0248 00600F40 		.word	1074749440
 718 024c 02600F40 		.word	1074749442
 719 0250 00000140 		.word	1073807360
 720 0254 60000002 		.word	33554528
 721 0258 08000140 		.word	1073807368
 722 025c 0C000140 		.word	1073807372
 723 0260 00EE2222 		.word	572714496
ARM GAS  C:\Users\IlyR\AppData\Local\Temp\ccZiKTUc.s 			page 27


 724 0264 10000140 		.word	1073807376
 725 0268 00500F40 		.word	1074745344
 726 026c 04500F40 		.word	1074745348
 727 0270 08500F40 		.word	1074745352
 728 0274 00000430 		.word	805568512
 729 0278 0C500F40 		.word	1074745356
 730 027c 10500F40 		.word	1074745360
 731 0280 20500F40 		.word	1074745376
 732 0284 28500F40 		.word	1074745384
 733 0288 2C500F40 		.word	1074745388
 734 028c 30500F40 		.word	1074745392
 735 0290 38500F40 		.word	1074745400
 736 0294 3C500F40 		.word	1074745404
 737 0298 60010540 		.word	1074069856
 738 029c 20000040 		.word	1073741856
 739 02a0 00800F40 		.word	1074757632
 740 02a4 01700F40 		.word	1074753537
 741 02a8 00700F40 		.word	1074753536
 742 02ac 00000440 		.word	1074003968
 743 02b0 08000440 		.word	1074003976
 744 02b4 80051800 		.word	1574272
 745 02b8 18000440 		.word	1074003992
 746 02bc 18010440 		.word	1074004248
 747 02c0 00020440 		.word	1074004480
 748 02c4 08020440 		.word	1074004488
 749 02c8 8024C000 		.word	12592256
 750 02cc 18020440 		.word	1074004504
 751 02d0 00030440 		.word	1074004736
 752 02d4 08030440 		.word	1074004744
 753 02d8 806DDB00 		.word	14380416
 754 02dc 00040440 		.word	1074004992
 755 02e0 08040440 		.word	1074005000
 756 02e4 18040440 		.word	1074005016
 757              		.cfi_endproc
 758              	.LFE7:
 759              		.size	cyfitter_cfg, .-cyfitter_cfg
 760              		.section	.rodata
 761              		.align	2
 762              		.type	cfg_memset_list.4876, %object
 763              		.size	cfg_memset_list.4876, 12
 764              	cfg_memset_list.4876:
 765 0000 00300F40 		.word	1074737152
 766 0004 0004     		.short	1024
 767 0006 00400F40 		.4byte	1074741248
 768 000a 0004     		.short	1024
 769              		.align	2
 770              		.type	cy_cfg_addr_table.4870, %object
 771              		.size	cy_cfg_addr_table.4870, 40
 772              	cy_cfg_addr_table.4870:
 773 000c 01000F40 		.word	1074724865
 774 0010 2B300F40 		.word	1074737195
 775 0014 2A310F40 		.word	1074737450
 776 0018 55320F40 		.word	1074737749
 777 001c 3F330F40 		.word	1074737983
 778 0020 0E400F40 		.word	1074741262
 779 0024 0B410F40 		.word	1074741515
 780 0028 14420F40 		.word	1074741780
ARM GAS  C:\Users\IlyR\AppData\Local\Temp\ccZiKTUc.s 			page 28


 781 002c 1A430F40 		.word	1074742042
 782 0030 02600F40 		.word	1074749442
 783              		.align	2
 784              		.type	cy_cfg_data_table.4871, %object
 785              		.size	cy_cfg_data_table.4871, 614
 786              	cy_cfg_data_table.4871:
 787 0034 83       		.byte	-125
 788 0035 0D       		.byte	13
 789 0036 08       		.byte	8
 790 0037 02       		.byte	2
 791 0038 0A       		.byte	10
 792 0039 01       		.byte	1
 793 003a 0C       		.byte	12
 794 003b 01       		.byte	1
 795 003c 0D       		.byte	13
 796 003d 02       		.byte	2
 797 003e 0E       		.byte	14
 798 003f 02       		.byte	2
 799 0040 0F       		.byte	15
 800 0041 01       		.byte	1
 801 0042 12       		.byte	18
 802 0043 03       		.byte	3
 803 0044 15       		.byte	21
 804 0045 02       		.byte	2
 805 0046 16       		.byte	22
 806 0047 03       		.byte	3
 807 0048 17       		.byte	23
 808 0049 01       		.byte	1
 809 004a 18       		.byte	24
 810 004b 01       		.byte	1
 811 004c 1A       		.byte	26
 812 004d 02       		.byte	2
 813 004e 1B       		.byte	27
 814 004f 03       		.byte	3
 815 0050 1F       		.byte	31
 816 0051 03       		.byte	3
 817 0052 25       		.byte	37
 818 0053 01       		.byte	1
 819 0054 27       		.byte	39
 820 0055 02       		.byte	2
 821 0056 34       		.byte	52
 822 0057 03       		.byte	3
 823 0058 35       		.byte	53
 824 0059 03       		.byte	3
 825 005a 3B       		.byte	59
 826 005b 0C       		.byte	12
 827 005c 3E       		.byte	62
 828 005d 10       		.byte	16
 829 005e 3F       		.byte	63
 830 005f 10       		.byte	16
 831 0060 58       		.byte	88
 832 0061 04       		.byte	4
 833 0062 59       		.byte	89
 834 0063 04       		.byte	4
 835 0064 5B       		.byte	91
 836 0065 04       		.byte	4
 837 0066 5F       		.byte	95
ARM GAS  C:\Users\IlyR\AppData\Local\Temp\ccZiKTUc.s 			page 29


 838 0067 01       		.byte	1
 839 0068 8B       		.byte	-117
 840 0069 01       		.byte	1
 841 006a 8C       		.byte	-116
 842 006b 02       		.byte	2
 843 006c 8E       		.byte	-114
 844 006d 01       		.byte	1
 845 006e 94       		.byte	-108
 846 006f 01       		.byte	1
 847 0070 96       		.byte	-106
 848 0071 02       		.byte	2
 849 0072 97       		.byte	-105
 850 0073 01       		.byte	1
 851 0074 A4       		.byte	-92
 852 0075 02       		.byte	2
 853 0076 A6       		.byte	-90
 854 0077 01       		.byte	1
 855 0078 A9       		.byte	-87
 856 0079 01       		.byte	1
 857 007a B0       		.byte	-80
 858 007b 03       		.byte	3
 859 007c B7       		.byte	-73
 860 007d 01       		.byte	1
 861 007e B8       		.byte	-72
 862 007f 20       		.byte	32
 863 0080 BE       		.byte	-66
 864 0081 11       		.byte	17
 865 0082 BF       		.byte	-65
 866 0083 40       		.byte	64
 867 0084 D8       		.byte	-40
 868 0085 04       		.byte	4
 869 0086 D9       		.byte	-39
 870 0087 04       		.byte	4
 871 0088 DB       		.byte	-37
 872 0089 04       		.byte	4
 873 008a DF       		.byte	-33
 874 008b 01       		.byte	1
 875 008c 02       		.byte	2
 876 008d 08       		.byte	8
 877 008e 03       		.byte	3
 878 008f 01       		.byte	1
 879 0090 07       		.byte	7
 880 0091 01       		.byte	1
 881 0092 08       		.byte	8
 882 0093 10       		.byte	16
 883 0094 0A       		.byte	10
 884 0095 A0       		.byte	-96
 885 0096 0F       		.byte	15
 886 0097 20       		.byte	32
 887 0098 14       		.byte	20
 888 0099 10       		.byte	16
 889 009a 1A       		.byte	26
 890 009b 08       		.byte	8
 891 009c 1D       		.byte	29
 892 009d 01       		.byte	1
 893 009e 1F       		.byte	31
 894 009f 20       		.byte	32
ARM GAS  C:\Users\IlyR\AppData\Local\Temp\ccZiKTUc.s 			page 30


 895 00a0 20       		.byte	32
 896 00a1 10       		.byte	16
 897 00a2 23       		.byte	35
 898 00a3 04       		.byte	4
 899 00a4 26       		.byte	38
 900 00a5 80       		.byte	-128
 901 00a6 2B       		.byte	43
 902 00a7 10       		.byte	16
 903 00a8 2F       		.byte	47
 904 00a9 08       		.byte	8
 905 00aa 32       		.byte	50
 906 00ab 58       		.byte	88
 907 00ac 36       		.byte	54
 908 00ad 08       		.byte	8
 909 00ae 39       		.byte	57
 910 00af 40       		.byte	64
 911 00b0 3F       		.byte	63
 912 00b1 20       		.byte	32
 913 00b2 68       		.byte	104
 914 00b3 04       		.byte	4
 915 00b4 6A       		.byte	106
 916 00b5 80       		.byte	-128
 917 00b6 6B       		.byte	107
 918 00b7 04       		.byte	4
 919 00b8 6D       		.byte	109
 920 00b9 40       		.byte	64
 921 00ba 6F       		.byte	111
 922 00bb 01       		.byte	1
 923 00bc 80       		.byte	-128
 924 00bd 10       		.byte	16
 925 00be 81       		.byte	-127
 926 00bf 01       		.byte	1
 927 00c0 83       		.byte	-125
 928 00c1 04       		.byte	4
 929 00c2 84       		.byte	-124
 930 00c3 10       		.byte	16
 931 00c4 86       		.byte	-122
 932 00c5 08       		.byte	8
 933 00c6 87       		.byte	-121
 934 00c7 08       		.byte	8
 935 00c8 88       		.byte	-120
 936 00c9 04       		.byte	4
 937 00ca 8E       		.byte	-114
 938 00cb 10       		.byte	16
 939 00cc 8F       		.byte	-113
 940 00cd 10       		.byte	16
 941 00ce C0       		.byte	-64
 942 00cf 83       		.byte	-125
 943 00d0 C2       		.byte	-62
 944 00d1 2E       		.byte	46
 945 00d2 C4       		.byte	-60
 946 00d3 20       		.byte	32
 947 00d4 CA       		.byte	-54
 948 00d5 22       		.byte	34
 949 00d6 CC       		.byte	-52
 950 00d7 4E       		.byte	78
 951 00d8 CE       		.byte	-50
ARM GAS  C:\Users\IlyR\AppData\Local\Temp\ccZiKTUc.s 			page 31


 952 00d9 28       		.byte	40
 953 00da E2       		.byte	-30
 954 00db 08       		.byte	8
 955 00dc E4       		.byte	-28
 956 00dd 05       		.byte	5
 957 00de E6       		.byte	-26
 958 00df 02       		.byte	2
 959 00e0 08       		.byte	8
 960 00e1 02       		.byte	2
 961 00e2 09       		.byte	9
 962 00e3 01       		.byte	1
 963 00e4 0A       		.byte	10
 964 00e5 01       		.byte	1
 965 00e6 0B       		.byte	11
 966 00e7 02       		.byte	2
 967 00e8 14       		.byte	20
 968 00e9 01       		.byte	1
 969 00ea 15       		.byte	21
 970 00eb 01       		.byte	1
 971 00ec 16       		.byte	22
 972 00ed 02       		.byte	2
 973 00ee 17       		.byte	23
 974 00ef 02       		.byte	2
 975 00f0 20       		.byte	32
 976 00f1 01       		.byte	1
 977 00f2 22       		.byte	34
 978 00f3 02       		.byte	2
 979 00f4 29       		.byte	41
 980 00f5 01       		.byte	1
 981 00f6 2B       		.byte	43
 982 00f7 02       		.byte	2
 983 00f8 31       		.byte	49
 984 00f9 03       		.byte	3
 985 00fa 36       		.byte	54
 986 00fb 03       		.byte	3
 987 00fc 3E       		.byte	62
 988 00fd 40       		.byte	64
 989 00fe 3F       		.byte	63
 990 00ff 01       		.byte	1
 991 0100 40       		.byte	64
 992 0101 45       		.byte	69
 993 0102 49       		.byte	73
 994 0103 FF       		.byte	-1
 995 0104 4A       		.byte	74
 996 0105 FF       		.byte	-1
 997 0106 4B       		.byte	75
 998 0107 FF       		.byte	-1
 999 0108 4F       		.byte	79
 1000 0109 01       		.byte	1
 1001 010a 50       		.byte	80
 1002 010b 18       		.byte	24
 1003 010c 52       		.byte	82
 1004 010d 80       		.byte	-128
 1005 010e 58       		.byte	88
 1006 010f 04       		.byte	4
 1007 0110 59       		.byte	89
 1008 0111 04       		.byte	4
ARM GAS  C:\Users\IlyR\AppData\Local\Temp\ccZiKTUc.s 			page 32


 1009 0112 5A       		.byte	90
 1010 0113 04       		.byte	4
 1011 0114 5B       		.byte	91
 1012 0115 04       		.byte	4
 1013 0116 5F       		.byte	95
 1014 0117 01       		.byte	1
 1015 0118 60       		.byte	96
 1016 0119 40       		.byte	64
 1017 011a 62       		.byte	98
 1018 011b 40       		.byte	64
 1019 011c 64       		.byte	100
 1020 011d 40       		.byte	64
 1021 011e 65       		.byte	101
 1022 011f 40       		.byte	64
 1023 0120 66       		.byte	102
 1024 0121 80       		.byte	-128
 1025 0122 68       		.byte	104
 1026 0123 80       		.byte	-128
 1027 0124 6A       		.byte	106
 1028 0125 80       		.byte	-128
 1029 0126 6C       		.byte	108
 1030 0127 80       		.byte	-128
 1031 0128 6E       		.byte	110
 1032 0129 80       		.byte	-128
 1033 012a 82       		.byte	-126
 1034 012b 01       		.byte	1
 1035 012c 88       		.byte	-120
 1036 012d 04       		.byte	4
 1037 012e 8A       		.byte	-118
 1038 012f 02       		.byte	2
 1039 0130 8E       		.byte	-114
 1040 0131 01       		.byte	1
 1041 0132 91       		.byte	-111
 1042 0133 02       		.byte	2
 1043 0134 92       		.byte	-110
 1044 0135 06       		.byte	6
 1045 0136 93       		.byte	-109
 1046 0137 01       		.byte	1
 1047 0138 95       		.byte	-107
 1048 0139 02       		.byte	2
 1049 013a 96       		.byte	-106
 1050 013b 06       		.byte	6
 1051 013c 97       		.byte	-105
 1052 013d 01       		.byte	1
 1053 013e A0       		.byte	-96
 1054 013f 02       		.byte	2
 1055 0140 A2       		.byte	-94
 1056 0141 04       		.byte	4
 1057 0142 A8       		.byte	-88
 1058 0143 02       		.byte	2
 1059 0144 A9       		.byte	-87
 1060 0145 01       		.byte	1
 1061 0146 AA       		.byte	-86
 1062 0147 04       		.byte	4
 1063 0148 AB       		.byte	-85
 1064 0149 02       		.byte	2
 1065 014a B0       		.byte	-80
ARM GAS  C:\Users\IlyR\AppData\Local\Temp\ccZiKTUc.s 			page 33


 1066 014b 01       		.byte	1
 1067 014c B1       		.byte	-79
 1068 014d 03       		.byte	3
 1069 014e B4       		.byte	-76
 1070 014f 06       		.byte	6
 1071 0150 BE       		.byte	-66
 1072 0151 11       		.byte	17
 1073 0152 BF       		.byte	-65
 1074 0153 01       		.byte	1
 1075 0154 C0       		.byte	-64
 1076 0155 14       		.byte	20
 1077 0156 C5       		.byte	-59
 1078 0157 EC       		.byte	-20
 1079 0158 C7       		.byte	-57
 1080 0159 20       		.byte	32
 1081 015a C8       		.byte	-56
 1082 015b 23       		.byte	35
 1083 015c C9       		.byte	-55
 1084 015d FF       		.byte	-1
 1085 015e CA       		.byte	-54
 1086 015f FF       		.byte	-1
 1087 0160 CB       		.byte	-53
 1088 0161 FF       		.byte	-1
 1089 0162 CD       		.byte	-51
 1090 0163 83       		.byte	-125
 1091 0164 CE       		.byte	-50
 1092 0165 03       		.byte	3
 1093 0166 CF       		.byte	-49
 1094 0167 01       		.byte	1
 1095 0168 D0       		.byte	-48
 1096 0169 18       		.byte	24
 1097 016a D4       		.byte	-44
 1098 016b 01       		.byte	1
 1099 016c D6       		.byte	-42
 1100 016d 04       		.byte	4
 1101 016e D8       		.byte	-40
 1102 016f 04       		.byte	4
 1103 0170 D9       		.byte	-39
 1104 0171 04       		.byte	4
 1105 0172 DA       		.byte	-38
 1106 0173 04       		.byte	4
 1107 0174 DB       		.byte	-37
 1108 0175 04       		.byte	4
 1109 0176 DF       		.byte	-33
 1110 0177 01       		.byte	1
 1111 0178 E0       		.byte	-32
 1112 0179 40       		.byte	64
 1113 017a E2       		.byte	-30
 1114 017b 40       		.byte	64
 1115 017c E4       		.byte	-28
 1116 017d 40       		.byte	64
 1117 017e E5       		.byte	-27
 1118 017f 40       		.byte	64
 1119 0180 E6       		.byte	-26
 1120 0181 80       		.byte	-128
 1121 0182 E8       		.byte	-24
 1122 0183 80       		.byte	-128
ARM GAS  C:\Users\IlyR\AppData\Local\Temp\ccZiKTUc.s 			page 34


 1123 0184 EA       		.byte	-22
 1124 0185 80       		.byte	-128
 1125 0186 EC       		.byte	-20
 1126 0187 80       		.byte	-128
 1127 0188 EE       		.byte	-18
 1128 0189 80       		.byte	-128
 1129 018a 02       		.byte	2
 1130 018b 02       		.byte	2
 1131 018c 03       		.byte	3
 1132 018d 48       		.byte	72
 1133 018e 07       		.byte	7
 1134 018f 08       		.byte	8
 1135 0190 0A       		.byte	10
 1136 0191 A0       		.byte	-96
 1137 0192 0F       		.byte	15
 1138 0193 20       		.byte	32
 1139 0194 11       		.byte	17
 1140 0195 10       		.byte	16
 1141 0196 13       		.byte	19
 1142 0197 02       		.byte	2
 1143 0198 17       		.byte	23
 1144 0199 03       		.byte	3
 1145 019a 18       		.byte	24
 1146 019b 08       		.byte	8
 1147 019c 1A       		.byte	26
 1148 019d 40       		.byte	64
 1149 019e 1F       		.byte	31
 1150 019f 40       		.byte	64
 1151 01a0 20       		.byte	32
 1152 01a1 80       		.byte	-128
 1153 01a2 27       		.byte	39
 1154 01a3 80       		.byte	-128
 1155 01a4 2B       		.byte	43
 1156 01a5 08       		.byte	8
 1157 01a6 2F       		.byte	47
 1158 01a7 08       		.byte	8
 1159 01a8 32       		.byte	50
 1160 01a9 08       		.byte	8
 1161 01aa 33       		.byte	51
 1162 01ab 01       		.byte	1
 1163 01ac 36       		.byte	54
 1164 01ad 08       		.byte	8
 1165 01ae 37       		.byte	55
 1166 01af 08       		.byte	8
 1167 01b0 3D       		.byte	61
 1168 01b1 10       		.byte	16
 1169 01b2 3F       		.byte	63
 1170 01b3 20       		.byte	32
 1171 01b4 41       		.byte	65
 1172 01b5 01       		.byte	1
 1173 01b6 43       		.byte	67
 1174 01b7 40       		.byte	64
 1175 01b8 46       		.byte	70
 1176 01b9 80       		.byte	-128
 1177 01ba 49       		.byte	73
 1178 01bb 05       		.byte	5
 1179 01bc 4E       		.byte	78
ARM GAS  C:\Users\IlyR\AppData\Local\Temp\ccZiKTUc.s 			page 35


 1180 01bd 02       		.byte	2
 1181 01be 51       		.byte	81
 1182 01bf 01       		.byte	1
 1183 01c0 52       		.byte	82
 1184 01c1 02       		.byte	2
 1185 01c2 59       		.byte	89
 1186 01c3 05       		.byte	5
 1187 01c4 5A       		.byte	90
 1188 01c5 40       		.byte	64
 1189 01c6 5F       		.byte	95
 1190 01c7 80       		.byte	-128
 1191 01c8 61       		.byte	97
 1192 01c9 02       		.byte	2
 1193 01ca 76       		.byte	118
 1194 01cb 80       		.byte	-128
 1195 01cc 77       		.byte	119
 1196 01cd 40       		.byte	64
 1197 01ce 80       		.byte	-128
 1198 01cf 04       		.byte	4
 1199 01d0 84       		.byte	-124
 1200 01d1 40       		.byte	64
 1201 01d2 87       		.byte	-121
 1202 01d3 40       		.byte	64
 1203 01d4 8A       		.byte	-118
 1204 01d5 80       		.byte	-128
 1205 01d6 8B       		.byte	-117
 1206 01d7 04       		.byte	4
 1207 01d8 92       		.byte	-110
 1208 01d9 A0       		.byte	-96
 1209 01da 93       		.byte	-109
 1210 01db 04       		.byte	4
 1211 01dc 9B       		.byte	-101
 1212 01dd 01       		.byte	1
 1213 01de A2       		.byte	-94
 1214 01df 88       		.byte	-120
 1215 01e0 A3       		.byte	-93
 1216 01e1 18       		.byte	24
 1217 01e2 A5       		.byte	-91
 1218 01e3 02       		.byte	2
 1219 01e4 AD       		.byte	-83
 1220 01e5 02       		.byte	2
 1221 01e6 B2       		.byte	-78
 1222 01e7 04       		.byte	4
 1223 01e8 B7       		.byte	-73
 1224 01e9 20       		.byte	32
 1225 01ea C0       		.byte	-64
 1226 01eb 4B       		.byte	75
 1227 01ec C2       		.byte	-62
 1228 01ed 2C       		.byte	44
 1229 01ee C4       		.byte	-60
 1230 01ef 1A       		.byte	26
 1231 01f0 CA       		.byte	-54
 1232 01f1 24       		.byte	36
 1233 01f2 CC       		.byte	-52
 1234 01f3 43       		.byte	67
 1235 01f4 CE       		.byte	-50
 1236 01f5 20       		.byte	32
ARM GAS  C:\Users\IlyR\AppData\Local\Temp\ccZiKTUc.s 			page 36


 1237 01f6 D0       		.byte	-48
 1238 01f7 89       		.byte	-119
 1239 01f8 D2       		.byte	-46
 1240 01f9 10       		.byte	16
 1241 01fa D6       		.byte	-42
 1242 01fb 1B       		.byte	27
 1243 01fc D8       		.byte	-40
 1244 01fd 01       		.byte	1
 1245 01fe E0       		.byte	-32
 1246 01ff 0A       		.byte	10
 1247 0200 E2       		.byte	-30
 1248 0201 80       		.byte	-128
 1249 0202 E4       		.byte	-28
 1250 0203 01       		.byte	1
 1251 0204 E6       		.byte	-26
 1252 0205 40       		.byte	64
 1253 0206 EA       		.byte	-22
 1254 0207 40       		.byte	64
 1255 0208 37       		.byte	55
 1256 0209 20       		.byte	32
 1257 020a 57       		.byte	87
 1258 020b 80       		.byte	-128
 1259 020c 66       		.byte	102
 1260 020d 01       		.byte	1
 1261 020e 6C       		.byte	108
 1262 020f 02       		.byte	2
 1263 0210 73       		.byte	115
 1264 0211 04       		.byte	4
 1265 0212 82       		.byte	-126
 1266 0213 01       		.byte	1
 1267 0214 83       		.byte	-125
 1268 0215 24       		.byte	36
 1269 0216 CC       		.byte	-52
 1270 0217 20       		.byte	32
 1271 0218 D4       		.byte	-44
 1272 0219 40       		.byte	64
 1273 021a D8       		.byte	-40
 1274 021b 80       		.byte	-128
 1275 021c DA       		.byte	-38
 1276 021d 80       		.byte	-128
 1277 021e DC       		.byte	-36
 1278 021f 20       		.byte	32
 1279 0220 E2       		.byte	-30
 1280 0221 A0       		.byte	-96
 1281 0222 E4       		.byte	-28
 1282 0223 20       		.byte	32
 1283 0224 1B       		.byte	27
 1284 0225 04       		.byte	4
 1285 0226 48       		.byte	72
 1286 0227 01       		.byte	1
 1287 0228 88       		.byte	-120
 1288 0229 01       		.byte	1
 1289 022a 8C       		.byte	-116
 1290 022b 02       		.byte	2
 1291 022c A4       		.byte	-92
 1292 022d 02       		.byte	2
 1293 022e A7       		.byte	-89
ARM GAS  C:\Users\IlyR\AppData\Local\Temp\ccZiKTUc.s 			page 37


 1294 022f 04       		.byte	4
 1295 0230 AF       		.byte	-81
 1296 0231 04       		.byte	4
 1297 0232 B7       		.byte	-73
 1298 0233 80       		.byte	-128
 1299 0234 C6       		.byte	-58
 1300 0235 10       		.byte	16
 1301 0236 D2       		.byte	-46
 1302 0237 10       		.byte	16
 1303 0238 EA       		.byte	-22
 1304 0239 40       		.byte	64
 1305 023a 00       		.byte	0
 1306 023b 10       		.byte	16
 1307 023c 07       		.byte	7
 1308 023d 08       		.byte	8
 1309 023e 0B       		.byte	11
 1310 023f 20       		.byte	32
 1311 0240 34       		.byte	52
 1312 0241 02       		.byte	2
 1313 0242 66       		.byte	102
 1314 0243 02       		.byte	2
 1315 0244 69       		.byte	105
 1316 0245 40       		.byte	64
 1317 0246 6F       		.byte	111
 1318 0247 80       		.byte	-128
 1319 0248 81       		.byte	-127
 1320 0249 40       		.byte	64
 1321 024a 83       		.byte	-125
 1322 024b 10       		.byte	16
 1323 024c 87       		.byte	-121
 1324 024d 18       		.byte	24
 1325 024e 88       		.byte	-120
 1326 024f 02       		.byte	2
 1327 0250 8C       		.byte	-116
 1328 0251 50       		.byte	80
 1329 0252 C0       		.byte	-64
 1330 0253 03       		.byte	3
 1331 0254 C2       		.byte	-62
 1332 0255 08       		.byte	8
 1333 0256 CC       		.byte	-52
 1334 0257 01       		.byte	1
 1335 0258 D8       		.byte	-40
 1336 0259 01       		.byte	1
 1337 025a DA       		.byte	-38
 1338 025b 02       		.byte	2
 1339 025c DC       		.byte	-36
 1340 025d 02       		.byte	2
 1341 025e E0       		.byte	-32
 1342 025f 04       		.byte	4
 1343 0260 E2       		.byte	-30
 1344 0261 0A       		.byte	10
 1345 0262 18       		.byte	24
 1346 0263 40       		.byte	64
 1347 0264 2B       		.byte	43
 1348 0265 40       		.byte	64
 1349 0266 34       		.byte	52
 1350 0267 02       		.byte	2
ARM GAS  C:\Users\IlyR\AppData\Local\Temp\ccZiKTUc.s 			page 38


 1351 0268 5B       		.byte	91
 1352 0269 01       		.byte	1
 1353 026a 5F       		.byte	95
 1354 026b 04       		.byte	4
 1355 026c 60       		.byte	96
 1356 026d 10       		.byte	16
 1357 026e 67       		.byte	103
 1358 026f 10       		.byte	16
 1359 0270 7B       		.byte	123
 1360 0271 10       		.byte	16
 1361 0272 80       		.byte	-128
 1362 0273 10       		.byte	16
 1363 0274 87       		.byte	-121
 1364 0275 14       		.byte	20
 1365 0276 8B       		.byte	-117
 1366 0277 01       		.byte	1
 1367 0278 8F       		.byte	-113
 1368 0279 40       		.byte	64
 1369 027a 94       		.byte	-108
 1370 027b 40       		.byte	64
 1371 027c 98       		.byte	-104
 1372 027d 02       		.byte	2
 1373 027e A3       		.byte	-93
 1374 027f 10       		.byte	16
 1375 0280 B2       		.byte	-78
 1376 0281 02       		.byte	2
 1377 0282 B7       		.byte	-73
 1378 0283 80       		.byte	-128
 1379 0284 C6       		.byte	-58
 1380 0285 08       		.byte	8
 1381 0286 CA       		.byte	-54
 1382 0287 02       		.byte	2
 1383 0288 CC       		.byte	-52
 1384 0289 01       		.byte	1
 1385 028a D6       		.byte	-42
 1386 028b 03       		.byte	3
 1387 028c D8       		.byte	-40
 1388 028d 03       		.byte	3
 1389 028e DE       		.byte	-34
 1390 028f 02       		.byte	2
 1391 0290 E4       		.byte	-28
 1392 0291 04       		.byte	4
 1393 0292 E6       		.byte	-26
 1394 0293 02       		.byte	2
 1395 0294 E8       		.byte	-24
 1396 0295 03       		.byte	3
 1397 0296 10       		.byte	16
 1398 0297 01       		.byte	1
 1399 0298 11       		.byte	17
 1400 0299 01       		.byte	1
 1401              		.text
 1402              	.Letext0:
 1403              		.file 2 "c:\\program files (x86)\\cypress\\psoc creator\\4.2\\psoc creator\\import\\gnu\\arm\\5.4.
 1404              		.file 3 "Generated_Source\\PSoC4\\cytypes.h"