ARM GAS  C:\Users\IlyR\AppData\Local\Temp\cctCk3Fh.s 			page 1


   1              		.syntax unified
   2              		.cpu cortex-m0
   3              		.fpu softvfp
   4              		.eabi_attribute 20, 1
   5              		.eabi_attribute 21, 1
   6              		.eabi_attribute 23, 3
   7              		.eabi_attribute 24, 1
   8              		.eabi_attribute 25, 1
   9              		.eabi_attribute 26, 1
  10              		.eabi_attribute 30, 6
  11              		.eabi_attribute 34, 0
  12              		.eabi_attribute 18, 4
  13              		.thumb
  14              		.syntax unified
  15              		.file	"LPComp_OC_PM.c"
  16              		.text
  17              	.Ltext0:
  18              		.cfi_sections	.debug_frame
  19              		.section	.text.LPComp_OC_SaveConfig,"ax",%progbits
  20              		.align	2
  21              		.global	LPComp_OC_SaveConfig
  22              		.code	16
  23              		.thumb_func
  24              		.type	LPComp_OC_SaveConfig, %function
  25              	LPComp_OC_SaveConfig:
  26              	.LFB0:
  27              		.file 1 "Generated_Source\\PSoC4\\LPComp_OC_PM.c"
   1:Generated_Source\PSoC4/LPComp_OC_PM.c **** /*******************************************************************************
   2:Generated_Source\PSoC4/LPComp_OC_PM.c **** * File Name: LPComp_OC.c
   3:Generated_Source\PSoC4/LPComp_OC_PM.c **** * Version 2.20
   4:Generated_Source\PSoC4/LPComp_OC_PM.c **** *
   5:Generated_Source\PSoC4/LPComp_OC_PM.c **** * Description:
   6:Generated_Source\PSoC4/LPComp_OC_PM.c **** *  This file provides the power management source code APIs for the
   7:Generated_Source\PSoC4/LPComp_OC_PM.c **** *  Analog Low Power Comparator component.
   8:Generated_Source\PSoC4/LPComp_OC_PM.c **** *
   9:Generated_Source\PSoC4/LPComp_OC_PM.c **** * Note:
  10:Generated_Source\PSoC4/LPComp_OC_PM.c **** *  None
  11:Generated_Source\PSoC4/LPComp_OC_PM.c **** *
  12:Generated_Source\PSoC4/LPComp_OC_PM.c **** ********************************************************************************
  13:Generated_Source\PSoC4/LPComp_OC_PM.c **** * Copyright 2013-2016, Cypress Semiconductor Corporation.  All rights reserved.
  14:Generated_Source\PSoC4/LPComp_OC_PM.c **** * You may use this file only in accordance with the license, terms, conditions,
  15:Generated_Source\PSoC4/LPComp_OC_PM.c **** * disclaimers, and limitations in the end user license agreement accompanying
  16:Generated_Source\PSoC4/LPComp_OC_PM.c **** * the software package with which this file was provided.
  17:Generated_Source\PSoC4/LPComp_OC_PM.c **** *******************************************************************************/
  18:Generated_Source\PSoC4/LPComp_OC_PM.c **** 
  19:Generated_Source\PSoC4/LPComp_OC_PM.c **** #include "LPComp_OC.h"
  20:Generated_Source\PSoC4/LPComp_OC_PM.c **** 
  21:Generated_Source\PSoC4/LPComp_OC_PM.c **** 
  22:Generated_Source\PSoC4/LPComp_OC_PM.c **** /*******************************************************************************
  23:Generated_Source\PSoC4/LPComp_OC_PM.c **** * Function Name: LPComp_OC_SaveConfig
  24:Generated_Source\PSoC4/LPComp_OC_PM.c **** ********************************************************************************
  25:Generated_Source\PSoC4/LPComp_OC_PM.c **** *
  26:Generated_Source\PSoC4/LPComp_OC_PM.c **** * Summary:
  27:Generated_Source\PSoC4/LPComp_OC_PM.c **** *  Empty function. Included for consistency with other components.
  28:Generated_Source\PSoC4/LPComp_OC_PM.c **** *
  29:Generated_Source\PSoC4/LPComp_OC_PM.c **** * Parameters:
  30:Generated_Source\PSoC4/LPComp_OC_PM.c **** *  None
ARM GAS  C:\Users\IlyR\AppData\Local\Temp\cctCk3Fh.s 			page 2


  31:Generated_Source\PSoC4/LPComp_OC_PM.c **** *
  32:Generated_Source\PSoC4/LPComp_OC_PM.c **** * Return:
  33:Generated_Source\PSoC4/LPComp_OC_PM.c **** *  None
  34:Generated_Source\PSoC4/LPComp_OC_PM.c **** *
  35:Generated_Source\PSoC4/LPComp_OC_PM.c **** *******************************************************************************/
  36:Generated_Source\PSoC4/LPComp_OC_PM.c **** void LPComp_OC_SaveConfig(void)
  37:Generated_Source\PSoC4/LPComp_OC_PM.c **** {
  28              		.loc 1 37 0
  29              		.cfi_startproc
  30              		@ args = 0, pretend = 0, frame = 0
  31              		@ frame_needed = 1, uses_anonymous_args = 0
  32 0000 80B5     		push	{r7, lr}
  33              		.cfi_def_cfa_offset 8
  34              		.cfi_offset 7, -8
  35              		.cfi_offset 14, -4
  36 0002 00AF     		add	r7, sp, #0
  37              		.cfi_def_cfa_register 7
  38:Generated_Source\PSoC4/LPComp_OC_PM.c **** 
  39:Generated_Source\PSoC4/LPComp_OC_PM.c **** }
  38              		.loc 1 39 0
  39 0004 C046     		nop
  40 0006 BD46     		mov	sp, r7
  41              		@ sp needed
  42 0008 80BD     		pop	{r7, pc}
  43              		.cfi_endproc
  44              	.LFE0:
  45              		.size	LPComp_OC_SaveConfig, .-LPComp_OC_SaveConfig
  46 000a C046     		.section	.text.LPComp_OC_RestoreConfig,"ax",%progbits
  47              		.align	2
  48              		.global	LPComp_OC_RestoreConfig
  49              		.code	16
  50              		.thumb_func
  51              		.type	LPComp_OC_RestoreConfig, %function
  52              	LPComp_OC_RestoreConfig:
  53              	.LFB1:
  40:Generated_Source\PSoC4/LPComp_OC_PM.c **** 
  41:Generated_Source\PSoC4/LPComp_OC_PM.c **** 
  42:Generated_Source\PSoC4/LPComp_OC_PM.c **** /*******************************************************************************
  43:Generated_Source\PSoC4/LPComp_OC_PM.c **** * Function Name: LPComp_OC_RestoreConfig
  44:Generated_Source\PSoC4/LPComp_OC_PM.c **** ********************************************************************************
  45:Generated_Source\PSoC4/LPComp_OC_PM.c **** *
  46:Generated_Source\PSoC4/LPComp_OC_PM.c **** * Summary:
  47:Generated_Source\PSoC4/LPComp_OC_PM.c **** *  Empty function. Included for consistency with other components.
  48:Generated_Source\PSoC4/LPComp_OC_PM.c **** *
  49:Generated_Source\PSoC4/LPComp_OC_PM.c **** * Parameters:
  50:Generated_Source\PSoC4/LPComp_OC_PM.c **** *  None
  51:Generated_Source\PSoC4/LPComp_OC_PM.c **** *
  52:Generated_Source\PSoC4/LPComp_OC_PM.c **** * Return:
  53:Generated_Source\PSoC4/LPComp_OC_PM.c **** *  None
  54:Generated_Source\PSoC4/LPComp_OC_PM.c **** *
  55:Generated_Source\PSoC4/LPComp_OC_PM.c **** ********************************************************************************/
  56:Generated_Source\PSoC4/LPComp_OC_PM.c **** void LPComp_OC_RestoreConfig(void)
  57:Generated_Source\PSoC4/LPComp_OC_PM.c **** {
  54              		.loc 1 57 0
  55              		.cfi_startproc
  56              		@ args = 0, pretend = 0, frame = 0
  57              		@ frame_needed = 1, uses_anonymous_args = 0
ARM GAS  C:\Users\IlyR\AppData\Local\Temp\cctCk3Fh.s 			page 3


  58 0000 80B5     		push	{r7, lr}
  59              		.cfi_def_cfa_offset 8
  60              		.cfi_offset 7, -8
  61              		.cfi_offset 14, -4
  62 0002 00AF     		add	r7, sp, #0
  63              		.cfi_def_cfa_register 7
  58:Generated_Source\PSoC4/LPComp_OC_PM.c **** 
  59:Generated_Source\PSoC4/LPComp_OC_PM.c **** }
  64              		.loc 1 59 0
  65 0004 C046     		nop
  66 0006 BD46     		mov	sp, r7
  67              		@ sp needed
  68 0008 80BD     		pop	{r7, pc}
  69              		.cfi_endproc
  70              	.LFE1:
  71              		.size	LPComp_OC_RestoreConfig, .-LPComp_OC_RestoreConfig
  72              		.section	.text.LPComp_OC_Sleep,"ax",%progbits
  73              		.align	2
  74              		.global	LPComp_OC_Sleep
  75              		.code	16
  76              		.thumb_func
  77              		.type	LPComp_OC_Sleep, %function
  78              	LPComp_OC_Sleep:
  79              	.LFB2:
  60:Generated_Source\PSoC4/LPComp_OC_PM.c **** 
  61:Generated_Source\PSoC4/LPComp_OC_PM.c **** 
  62:Generated_Source\PSoC4/LPComp_OC_PM.c **** /*******************************************************************************
  63:Generated_Source\PSoC4/LPComp_OC_PM.c **** * Function Name: LPComp_OC_Sleep
  64:Generated_Source\PSoC4/LPComp_OC_PM.c **** ********************************************************************************
  65:Generated_Source\PSoC4/LPComp_OC_PM.c **** *
  66:Generated_Source\PSoC4/LPComp_OC_PM.c **** * Summary:
  67:Generated_Source\PSoC4/LPComp_OC_PM.c **** *  Empty function. Included for consistency with other components.
  68:Generated_Source\PSoC4/LPComp_OC_PM.c **** *
  69:Generated_Source\PSoC4/LPComp_OC_PM.c **** * Parameters:
  70:Generated_Source\PSoC4/LPComp_OC_PM.c **** *  None
  71:Generated_Source\PSoC4/LPComp_OC_PM.c **** *
  72:Generated_Source\PSoC4/LPComp_OC_PM.c **** * Return:
  73:Generated_Source\PSoC4/LPComp_OC_PM.c **** *  None
  74:Generated_Source\PSoC4/LPComp_OC_PM.c **** *
  75:Generated_Source\PSoC4/LPComp_OC_PM.c **** *******************************************************************************/
  76:Generated_Source\PSoC4/LPComp_OC_PM.c **** void LPComp_OC_Sleep(void)
  77:Generated_Source\PSoC4/LPComp_OC_PM.c **** {
  80              		.loc 1 77 0
  81              		.cfi_startproc
  82              		@ args = 0, pretend = 0, frame = 0
  83              		@ frame_needed = 1, uses_anonymous_args = 0
  84 0000 80B5     		push	{r7, lr}
  85              		.cfi_def_cfa_offset 8
  86              		.cfi_offset 7, -8
  87              		.cfi_offset 14, -4
  88 0002 00AF     		add	r7, sp, #0
  89              		.cfi_def_cfa_register 7
  78:Generated_Source\PSoC4/LPComp_OC_PM.c **** 
  79:Generated_Source\PSoC4/LPComp_OC_PM.c **** }
  90              		.loc 1 79 0
  91 0004 C046     		nop
  92 0006 BD46     		mov	sp, r7
ARM GAS  C:\Users\IlyR\AppData\Local\Temp\cctCk3Fh.s 			page 4


  93              		@ sp needed
  94 0008 80BD     		pop	{r7, pc}
  95              		.cfi_endproc
  96              	.LFE2:
  97              		.size	LPComp_OC_Sleep, .-LPComp_OC_Sleep
  98              		.section	.text.LPComp_OC_Wakeup,"ax",%progbits
  99              		.align	2
 100              		.global	LPComp_OC_Wakeup
 101              		.code	16
 102              		.thumb_func
 103              		.type	LPComp_OC_Wakeup, %function
 104              	LPComp_OC_Wakeup:
 105              	.LFB3:
  80:Generated_Source\PSoC4/LPComp_OC_PM.c **** 
  81:Generated_Source\PSoC4/LPComp_OC_PM.c **** 
  82:Generated_Source\PSoC4/LPComp_OC_PM.c **** /*******************************************************************************
  83:Generated_Source\PSoC4/LPComp_OC_PM.c **** * Function Name: LPComp_OC_Wakeup
  84:Generated_Source\PSoC4/LPComp_OC_PM.c **** ********************************************************************************
  85:Generated_Source\PSoC4/LPComp_OC_PM.c **** *
  86:Generated_Source\PSoC4/LPComp_OC_PM.c **** * Summary:
  87:Generated_Source\PSoC4/LPComp_OC_PM.c **** *  Empty function. Included for consistency with other components.
  88:Generated_Source\PSoC4/LPComp_OC_PM.c **** *
  89:Generated_Source\PSoC4/LPComp_OC_PM.c **** * Parameters:
  90:Generated_Source\PSoC4/LPComp_OC_PM.c **** *  None
  91:Generated_Source\PSoC4/LPComp_OC_PM.c **** *
  92:Generated_Source\PSoC4/LPComp_OC_PM.c **** * Return:
  93:Generated_Source\PSoC4/LPComp_OC_PM.c **** *  None
  94:Generated_Source\PSoC4/LPComp_OC_PM.c **** *
  95:Generated_Source\PSoC4/LPComp_OC_PM.c **** *******************************************************************************/
  96:Generated_Source\PSoC4/LPComp_OC_PM.c **** void LPComp_OC_Wakeup(void)
  97:Generated_Source\PSoC4/LPComp_OC_PM.c **** {
 106              		.loc 1 97 0
 107              		.cfi_startproc
 108              		@ args = 0, pretend = 0, frame = 0
 109              		@ frame_needed = 1, uses_anonymous_args = 0
 110 0000 80B5     		push	{r7, lr}
 111              		.cfi_def_cfa_offset 8
 112              		.cfi_offset 7, -8
 113              		.cfi_offset 14, -4
 114 0002 00AF     		add	r7, sp, #0
 115              		.cfi_def_cfa_register 7
  98:Generated_Source\PSoC4/LPComp_OC_PM.c **** 
  99:Generated_Source\PSoC4/LPComp_OC_PM.c **** }
 116              		.loc 1 99 0
 117 0004 C046     		nop
 118 0006 BD46     		mov	sp, r7
 119              		@ sp needed
 120 0008 80BD     		pop	{r7, pc}
 121              		.cfi_endproc
 122              	.LFE3:
 123              		.size	LPComp_OC_Wakeup, .-LPComp_OC_Wakeup
 124              		.text
 125              	.Letext0: