ARM GAS  C:\Users\IlyR\AppData\Local\Temp\ccLKIBiW.s 			page 1


   1              		.syntax unified
   2              		.cpu cortex-m0
   3              		.fpu softvfp
   4              		.eabi_attribute 20, 1
   5              		.eabi_attribute 21, 1
   6              		.eabi_attribute 23, 3
   7              		.eabi_attribute 24, 1
   8              		.eabi_attribute 25, 1
   9              		.eabi_attribute 26, 1
  10              		.eabi_attribute 30, 6
  11              		.eabi_attribute 34, 0
  12              		.eabi_attribute 18, 4
  13              		.thumb
  14              		.syntax unified
  15              		.file	"motor.c"
  16              		.text
  17              	.Ltext0:
  18              		.cfi_sections	.debug_frame
  19              		.comm	UI_Cmd,1,4
  20              		.comm	UI_Data,48,8
  21              		.global	gearRatio
  22              		.bss
  23              		.align	1
  24              		.type	gearRatio, %object
  25              		.size	gearRatio, 2
  26              	gearRatio:
  27 0000 0000     		.space	2
  28              		.global	speedRef
  29              		.align	1
  30              		.type	speedRef, %object
  31              		.size	speedRef, 2
  32              	speedRef:
  33 0002 0000     		.space	2
  34              		.global	speedCur
  35              		.align	1
  36              		.type	speedCur, %object
  37              		.size	speedCur, 2
  38              	speedCur:
  39 0004 0000     		.space	2
  40              		.global	preSpeedCur
  41              		.align	1
  42              		.type	preSpeedCur, %object
  43              		.size	preSpeedCur, 2
  44              	preSpeedCur:
  45 0006 0000     		.space	2
  46              		.global	preCntCaptur
  47              		.align	1
  48              		.type	preCntCaptur, %object
  49              		.size	preCntCaptur, 2
  50              	preCntCaptur:
  51 0008 0000     		.space	2
  52              		.global	angularPos
  53 000a 00000000 		.align	3
  53      0000
  54              		.type	angularPos, %object
  55              		.size	angularPos, 8
  56              	angularPos:
ARM GAS  C:\Users\IlyR\AppData\Local\Temp\ccLKIBiW.s 			page 2


  57 0010 00000000 		.space	8
  57      00000000 
  58              		.global	spinCount
  59              		.align	1
  60              		.type	spinCount, %object
  61              		.size	spinCount, 2
  62              	spinCount:
  63 0018 0000     		.space	2
  64              		.global	changeDirection
  65              		.type	changeDirection, %object
  66              		.size	changeDirection, 1
  67              	changeDirection:
  68 001a 00       		.space	1
  69              		.global	programStateManchineState
  70              		.type	programStateManchineState, %object
  71              		.size	programStateManchineState, 1
  72              	programStateManchineState:
  73 001b 00       		.space	1
  74              		.global	switchAngle
  75              		.data
  76              		.align	2
  77              		.type	switchAngle, %object
  78              		.size	switchAngle, 4
  79              	switchAngle:
  80 0000 00002041 		.word	1092616192
  81              		.global	dutyCycle
  82              		.bss
  83              		.type	dutyCycle, %object
  84              		.size	dutyCycle, 1
  85              	dutyCycle:
  86 001c 00       		.space	1
  87              		.global	pwmCnt
  88 001d 00       		.align	1
  89              		.type	pwmCnt, %object
  90              		.size	pwmCnt, 2
  91              	pwmCnt:
  92 001e 0000     		.space	2
  93              		.global	firstRun
  94              		.data
  95              		.type	firstRun, %object
  96              		.size	firstRun, 1
  97              	firstRun:
  98 0004 01       		.byte	1
  99              		.global	ocBlankCnt
 100              		.bss
 101              		.type	ocBlankCnt, %object
 102              		.size	ocBlankCnt, 1
 103              	ocBlankCnt:
 104 0020 00       		.space	1
 105              		.global	errorState
 106              		.type	errorState, %object
 107              		.size	errorState, 1
 108              	errorState:
 109 0021 00       		.space	1
 110              		.global	stateSys
 111              		.data
 112              		.type	stateSys, %object
ARM GAS  C:\Users\IlyR\AppData\Local\Temp\ccLKIBiW.s 			page 3


 113              		.size	stateSys, 1
 114              	stateSys:
 115 0005 02       		.byte	2
 116              		.section	.text.pwm_isr,"ax",%progbits
 117              		.align	2
 118              		.global	pwm_isr
 119              		.code	16
 120              		.thumb_func
 121              		.type	pwm_isr, %function
 122              	pwm_isr:
 123              	.LFB32:
 124              		.file 1 "motor.c"
   1:motor.c       **** /*******************************************************************************
   2:motor.c       **** * Project Name		: Sensored BLDC Motor Control
   3:motor.c       **** * File Name			: motor.c
   4:motor.c       **** * Version			: 1.0
   5:motor.c       **** * Device Used		: CY8C4245AXI-483     
   6:motor.c       **** * Software Used		: PSoC Creator 4.2
   7:motor.c       **** * Compiler Used		: ARM GCC 5.4.1 
   8:motor.c       **** * Related Hardware  : CY8CKIT-042 PSoC 4 Pioneer Kit + CY8CKIT-037 PSoC 4
   9:motor.c       **** *                     Motor Control Evaluation Kit
  10:motor.c       **** ******************************************************************************
  11:motor.c       **** * Copyright (2018), Cypress Semiconductor Corporation. All rights reserved.
  12:motor.c       **** *******************************************************************************
  13:motor.c       **** * This software, including source code, documentation and related materials
  14:motor.c       **** * (“Software”), is owned by Cypress Semiconductor Corporation or one of its
  15:motor.c       **** * subsidiaries (“Cypress”) and is protected by and subject to worldwide patent
  16:motor.c       **** * protection (United States and foreign), United States copyright laws and
  17:motor.c       **** * international treaty provisions. Therefore, you may use this Software only
  18:motor.c       **** * as provided in the license agreement accompanying the software package from
  19:motor.c       **** * which you obtained this Software (“EULA”).
  20:motor.c       **** *
  21:motor.c       **** * If no EULA applies, Cypress hereby grants you a personal, nonexclusive,
  22:motor.c       **** * non-transferable license to copy, modify, and compile the Software source
  23:motor.c       **** * code solely for use in connection with Cypress’s integrated circuit products.
  24:motor.c       **** * Any reproduction, modification, translation, compilation, or representation
  25:motor.c       **** * of this Software except as specified above is prohibited without the express
  26:motor.c       **** * written permission of Cypress.
  27:motor.c       **** *
  28:motor.c       **** * Disclaimer: THIS SOFTWARE IS PROVIDED AS-IS, WITH NO WARRANTY OF ANY KIND, 
  29:motor.c       **** * EXPRESS OR IMPLIED, INCLUDING, BUT NOT LIMITED TO, NONINFRINGEMENT, IMPLIED 
  30:motor.c       **** * WARRANTIES OF MERCHANTABILITY AND FITNESS FOR A PARTICULAR PURPOSE. Cypress 
  31:motor.c       **** * reserves the right to make changes to the Software without notice. Cypress 
  32:motor.c       **** * does not assume any liability arising out of the application or use of the 
  33:motor.c       **** * Software or any product or circuit described in the Software. Cypress does 
  34:motor.c       **** * not authorize its products for use in any products where a malfunction or 
  35:motor.c       **** * failure of the Cypress product may reasonably be expected to result in 
  36:motor.c       **** * significant property damage, injury or death (“High Risk Product”). By 
  37:motor.c       **** * including Cypress’s product in a High Risk Product, the manufacturer of such 
  38:motor.c       **** * system or application assumes all risk of such use and in doing so agrees to 
  39:motor.c       **** * indemnify Cypress against all liability.
  40:motor.c       **** *******************************************************************************/
  41:motor.c       **** #include <project.h>
  42:motor.c       **** #include "motor.h"
  43:motor.c       **** #include "userinterface.h"
  44:motor.c       **** #include "getvalue.h"
  45:motor.c       **** 
ARM GAS  C:\Users\IlyR\AppData\Local\Temp\ccLKIBiW.s 			page 4


  46:motor.c       **** /* UI_MOTOR_STATUS Status */
  47:motor.c       **** UI_CMD  UI_Cmd;
  48:motor.c       **** UI_DATA UI_Data;
  49:motor.c       **** 
  50:motor.c       **** uint16 gearRatio = 0;         /* :1 gearRatio */
  51:motor.c       **** uint16 speedRef = 0;            /* Motor speed Reference */
  52:motor.c       **** uint16 speedCur = 0;         /* Current motor speed. Original: 3000 */
  53:motor.c       **** 
  54:motor.c       **** uint16 preSpeedCur = 0;
  55:motor.c       **** uint16 preCntCaptur = 0;         /* Current motor speed. Original: 30000 */
  56:motor.c       **** 
  57:motor.c       **** float64 angularPos = 0;
  58:motor.c       **** int16 spinCount = 0;
  59:motor.c       **** uint8 changeDirection = FALSE;
  60:motor.c       **** uint8 programStateManchineState = 0;
  61:motor.c       **** float32 switchAngle = 10.0;
  62:motor.c       **** 
  63:motor.c       **** uint8  dutyCycle = 0;            /* really now used as BYTE since use 8-bit PWM */
  64:motor.c       **** uint16 pwmCnt = 0;
  65:motor.c       **** uint8 firstRun = 1;
  66:motor.c       **** uint8 ocBlankCnt = 0;
  67:motor.c       **** Error_T errorState = no_error;
  68:motor.c       **** uint8 stateSys = STATUS_STOP;
  69:motor.c       **** 
  70:motor.c       **** /*******************************************************************************
  71:motor.c       **** * Function Name: pwm_isr
  72:motor.c       **** ********************************************************************************
  73:motor.c       **** *
  74:motor.c       **** * Summary:
  75:motor.c       **** * This function is PWM ISR. When TC happens, it increases PWM ticker, clears flag and 
  76:motor.c       **** * enables over current protection ISR after startup.
  77:motor.c       **** *
  78:motor.c       **** * Parameters: None
  79:motor.c       **** *
  80:motor.c       **** * Return: None
  81:motor.c       **** *
  82:motor.c       **** *******************************************************************************/
  83:motor.c       **** CY_ISR(pwm_isr)
  84:motor.c       **** {	
 125              		.loc 1 84 0
 126              		.cfi_startproc
 127              		@ args = 0, pretend = 0, frame = 0
 128              		@ frame_needed = 1, uses_anonymous_args = 0
 129 0000 80B5     		push	{r7, lr}
 130              		.cfi_def_cfa_offset 8
 131              		.cfi_offset 7, -8
 132              		.cfi_offset 14, -4
 133 0002 00AF     		add	r7, sp, #0
 134              		.cfi_def_cfa_register 7
  85:motor.c       **** 	pwmCnt++;  
 135              		.loc 1 85 0
 136 0004 184B     		ldr	r3, .L5
 137 0006 1B88     		ldrh	r3, [r3]
 138 0008 0133     		adds	r3, r3, #1
 139 000a 9AB2     		uxth	r2, r3
 140 000c 164B     		ldr	r3, .L5
 141 000e 1A80     		strh	r2, [r3]
ARM GAS  C:\Users\IlyR\AppData\Local\Temp\ccLKIBiW.s 			page 5


  86:motor.c       **** 	
  87:motor.c       ****     /* Avoid the current pulse interference in motor start-up*/
  88:motor.c       ****     if (UI_Cmd.run)
 142              		.loc 1 88 0
 143 0010 164B     		ldr	r3, .L5+4
 144 0012 1B78     		ldrb	r3, [r3]
 145 0014 002B     		cmp	r3, #0
 146 0016 17D0     		beq	.L2
  89:motor.c       ****     {
  90:motor.c       ****         if(firstRun == 1)
 147              		.loc 1 90 0
 148 0018 154B     		ldr	r3, .L5+8
 149 001a 1B78     		ldrb	r3, [r3]
 150 001c 012B     		cmp	r3, #1
 151 001e 05D1     		bne	.L3
  91:motor.c       ****         {
  92:motor.c       ****             ocBlankCnt++;
 152              		.loc 1 92 0
 153 0020 144B     		ldr	r3, .L5+12
 154 0022 1B78     		ldrb	r3, [r3]
 155 0024 0133     		adds	r3, r3, #1
 156 0026 DAB2     		uxtb	r2, r3
 157 0028 124B     		ldr	r3, .L5+12
 158 002a 1A70     		strb	r2, [r3]
 159              	.L3:
  93:motor.c       ****         }
  94:motor.c       ****         if (ocBlankCnt > 2)    /*Ignore the first 2 PWM period = 50uS*3=150uS, then enable over cur
 160              		.loc 1 94 0
 161 002c 114B     		ldr	r3, .L5+12
 162 002e 1B78     		ldrb	r3, [r3]
 163 0030 022B     		cmp	r3, #2
 164 0032 09D9     		bls	.L2
  95:motor.c       ****         {
  96:motor.c       ****             firstRun = 0;
 165              		.loc 1 96 0
 166 0034 0E4B     		ldr	r3, .L5+8
 167 0036 0022     		movs	r2, #0
 168 0038 1A70     		strb	r2, [r3]
  97:motor.c       ****             ocBlankCnt = 0;
 169              		.loc 1 97 0
 170 003a 0E4B     		ldr	r3, .L5+12
 171 003c 0022     		movs	r2, #0
 172 003e 1A70     		strb	r2, [r3]
  98:motor.c       ****             isr_oc_Enable();
 173              		.loc 1 98 0
 174 0040 FFF7FEFF 		bl	isr_oc_Enable
  99:motor.c       ****             isr_oc_ClearPending();
 175              		.loc 1 99 0
 176 0044 FFF7FEFF 		bl	isr_oc_ClearPending
 177              	.L2:
 100:motor.c       ****         }
 101:motor.c       ****     }
 102:motor.c       **** 	
 103:motor.c       **** 	/* Calculate the real time motor speed every 2000 PWM period*/
 104:motor.c       **** 	if(pwmCnt >= 2001)
 178              		.loc 1 104 0
 179 0048 074B     		ldr	r3, .L5
ARM GAS  C:\Users\IlyR\AppData\Local\Temp\ccLKIBiW.s 			page 6


 180 004a 1A88     		ldrh	r2, [r3]
 181 004c FA23     		movs	r3, #250
 182 004e DB00     		lsls	r3, r3, #3
 183 0050 9A42     		cmp	r2, r3
 184 0052 02D9     		bls	.L4
 105:motor.c       **** 	{
 106:motor.c       **** 		pwmCnt = 0;
 185              		.loc 1 106 0
 186 0054 044B     		ldr	r3, .L5
 187 0056 0022     		movs	r2, #0
 188 0058 1A80     		strh	r2, [r3]
 189              	.L4:
 107:motor.c       **** 	}
 108:motor.c       **** 
 109:motor.c       **** 	PWM_Drive_ClearInterrupt(PWM_Drive_INTR_MASK_TC);
 190              		.loc 1 109 0
 191 005a 0120     		movs	r0, #1
 192 005c FFF7FEFF 		bl	PWM_Drive_ClearInterrupt
 110:motor.c       **** }
 193              		.loc 1 110 0
 194 0060 C046     		nop
 195 0062 BD46     		mov	sp, r7
 196              		@ sp needed
 197 0064 80BD     		pop	{r7, pc}
 198              	.L6:
 199 0066 C046     		.align	2
 200              	.L5:
 201 0068 00000000 		.word	pwmCnt
 202 006c 00000000 		.word	UI_Cmd
 203 0070 00000000 		.word	firstRun
 204 0074 00000000 		.word	ocBlankCnt
 205              		.cfi_endproc
 206              	.LFE32:
 207              		.size	pwm_isr, .-pwm_isr
 208              		.section	.text.drive_reset,"ax",%progbits
 209              		.align	2
 210              		.global	drive_reset
 211              		.code	16
 212              		.thumb_func
 213              		.type	drive_reset, %function
 214              	drive_reset:
 215              	.LFB33:
 111:motor.c       **** 
 112:motor.c       **** /*******************************************************************************
 113:motor.c       **** * Function Name: drive_reset
 114:motor.c       **** ********************************************************************************
 115:motor.c       **** *
 116:motor.c       **** * Summary:
 117:motor.c       **** * custom to allow direction change
 118:motor.c       **** * 
 119:motor.c       **** * Parameters: None
 120:motor.c       **** *
 121:motor.c       **** * Return: None
 122:motor.c       **** *
 123:motor.c       **** *******************************************************************************/
 124:motor.c       **** void drive_reset() {
 216              		.loc 1 124 0
ARM GAS  C:\Users\IlyR\AppData\Local\Temp\ccLKIBiW.s 			page 7


 217              		.cfi_startproc
 218              		@ args = 0, pretend = 0, frame = 0
 219              		@ frame_needed = 1, uses_anonymous_args = 0
 220 0000 80B5     		push	{r7, lr}
 221              		.cfi_def_cfa_offset 8
 222              		.cfi_offset 7, -8
 223              		.cfi_offset 14, -4
 224 0002 00AF     		add	r7, sp, #0
 225              		.cfi_def_cfa_register 7
 125:motor.c       ****     
 126:motor.c       ****     speedCur = 0;         /* Current motor speed. Original: 3000 */
 226              		.loc 1 126 0
 227 0004 104B     		ldr	r3, .L8
 228 0006 0022     		movs	r2, #0
 229 0008 1A80     		strh	r2, [r3]
 127:motor.c       ****     preSpeedCur = 0;
 230              		.loc 1 127 0
 231 000a 104B     		ldr	r3, .L8+4
 232 000c 0022     		movs	r2, #0
 233 000e 1A80     		strh	r2, [r3]
 128:motor.c       ****     preCntCaptur = 0; /* Original:30000*/
 234              		.loc 1 128 0
 235 0010 0F4B     		ldr	r3, .L8+8
 236 0012 0022     		movs	r2, #0
 237 0014 1A80     		strh	r2, [r3]
 129:motor.c       ****     UI_Data.timeBetweenHallSamples = 0;
 238              		.loc 1 129 0
 239 0016 0F4B     		ldr	r3, .L8+12
 240 0018 0022     		movs	r2, #0
 241 001a DA82     		strh	r2, [r3, #22]
 130:motor.c       ****     
 131:motor.c       ****     isr_oc_Stop();
 242              		.loc 1 131 0
 243 001c FFF7FEFF 		bl	isr_oc_Stop
 132:motor.c       ****     UI_Data.motorWindupOvercurrentDisable = 1;
 244              		.loc 1 132 0
 245 0020 0C4B     		ldr	r3, .L8+12
 246 0022 0122     		movs	r2, #1
 247 0024 1A85     		strh	r2, [r3, #40]
 133:motor.c       ****     firstRun = 1;
 248              		.loc 1 133 0
 249 0026 0C4B     		ldr	r3, .L8+16
 250 0028 0122     		movs	r2, #1
 251 002a 1A70     		strb	r2, [r3]
 134:motor.c       ****     ocBlankCnt = 0;
 252              		.loc 1 134 0
 253 002c 0B4B     		ldr	r3, .L8+20
 254 002e 0022     		movs	r2, #0
 255 0030 1A70     		strb	r2, [r3]
 135:motor.c       ****     dutyCycle = 0;
 256              		.loc 1 135 0
 257 0032 0B4B     		ldr	r3, .L8+24
 258 0034 0022     		movs	r2, #0
 259 0036 1A70     		strb	r2, [r3]
 136:motor.c       ****     PWM_Drive_WriteCompare(dutyCycle);
 260              		.loc 1 136 0
 261 0038 094B     		ldr	r3, .L8+24
ARM GAS  C:\Users\IlyR\AppData\Local\Temp\ccLKIBiW.s 			page 8


 262 003a 1B78     		ldrb	r3, [r3]
 263 003c 1800     		movs	r0, r3
 264 003e FFF7FEFF 		bl	PWM_Drive_WriteCompare
 137:motor.c       **** }
 265              		.loc 1 137 0
 266 0042 C046     		nop
 267 0044 BD46     		mov	sp, r7
 268              		@ sp needed
 269 0046 80BD     		pop	{r7, pc}
 270              	.L9:
 271              		.align	2
 272              	.L8:
 273 0048 00000000 		.word	speedCur
 274 004c 00000000 		.word	preSpeedCur
 275 0050 00000000 		.word	preCntCaptur
 276 0054 00000000 		.word	UI_Data
 277 0058 00000000 		.word	firstRun
 278 005c 00000000 		.word	ocBlankCnt
 279 0060 00000000 		.word	dutyCycle
 280              		.cfi_endproc
 281              	.LFE33:
 282              		.size	drive_reset, .-drive_reset
 283              		.section	.text.time_isr,"ax",%progbits
 284              		.align	2
 285              		.global	time_isr
 286              		.code	16
 287              		.thumb_func
 288              		.type	time_isr, %function
 289              	time_isr:
 290              	.LFB34:
 138:motor.c       **** 
 139:motor.c       **** /*******************************************************************************
 140:motor.c       **** * Function Name: time_isr
 141:motor.c       **** ********************************************************************************
 142:motor.c       **** *
 143:motor.c       **** * Summary:
 144:motor.c       **** * custom to allow accurate speed sensing
 145:motor.c       **** * 
 146:motor.c       **** * Parameters: None
 147:motor.c       **** *
 148:motor.c       **** * Return: None
 149:motor.c       **** *
 150:motor.c       **** *******************************************************************************/
 151:motor.c       **** CY_ISR(time_isr) {
 291              		.loc 1 151 0
 292              		.cfi_startproc
 293              		@ args = 0, pretend = 0, frame = 0
 294              		@ frame_needed = 1, uses_anonymous_args = 0
 295 0000 80B5     		push	{r7, lr}
 296              		.cfi_def_cfa_offset 8
 297              		.cfi_offset 7, -8
 298              		.cfi_offset 14, -4
 299 0002 00AF     		add	r7, sp, #0
 300              		.cfi_def_cfa_register 7
 152:motor.c       ****     UI_Data.timeBetweenHallSamples = UI_Data.timeBetweenHallSamples + 1;
 301              		.loc 1 152 0
 302 0004 054B     		ldr	r3, .L11
ARM GAS  C:\Users\IlyR\AppData\Local\Temp\ccLKIBiW.s 			page 9


 303 0006 DB8A     		ldrh	r3, [r3, #22]
 304 0008 0133     		adds	r3, r3, #1
 305 000a 9AB2     		uxth	r2, r3
 306 000c 034B     		ldr	r3, .L11
 307 000e DA82     		strh	r2, [r3, #22]
 153:motor.c       ****     
 154:motor.c       ****     Timer_1_STATUS;
 308              		.loc 1 154 0
 309 0010 034B     		ldr	r3, .L11+4
 310 0012 1B78     		ldrb	r3, [r3]
 155:motor.c       **** }
 311              		.loc 1 155 0
 312 0014 C046     		nop
 313 0016 BD46     		mov	sp, r7
 314              		@ sp needed
 315 0018 80BD     		pop	{r7, pc}
 316              	.L12:
 317 001a C046     		.align	2
 318              	.L11:
 319 001c 00000000 		.word	UI_Data
 320 0020 63000F40 		.word	1074724963
 321              		.cfi_endproc
 322              	.LFE34:
 323              		.size	time_isr, .-time_isr
 324              		.global	__aeabi_ui2f
 325              		.global	__aeabi_fmul
 326              		.global	__aeabi_fdiv
 327              		.global	__aeabi_f2uiz
 328              		.global	__aeabi_i2f
 329              		.global	__aeabi_f2d
 330              		.global	__aeabi_dadd
 331              		.global	__aeabi_dsub
 332              		.global	__aeabi_dcmpge
 333              		.global	__aeabi_dcmple
 334              		.section	.text.speed_measure_isr,"ax",%progbits
 335              		.align	2
 336              		.global	speed_measure_isr
 337              		.code	16
 338              		.thumb_func
 339              		.type	speed_measure_isr, %function
 340              	speed_measure_isr:
 341              	.LFB35:
 156:motor.c       **** 
 157:motor.c       **** /*******************************************************************************
 158:motor.c       **** * Function Name: speed_measure_isr
 159:motor.c       **** ********************************************************************************
 160:motor.c       **** *
 161:motor.c       **** * Summary:
 162:motor.c       **** * This function is ISR for motor speed and position measurement. 
 163:motor.c       **** * 
 164:motor.c       **** * Parameters: None
 165:motor.c       **** *
 166:motor.c       **** * Return: None
 167:motor.c       **** *
 168:motor.c       **** *******************************************************************************/
 169:motor.c       **** CY_ISR(speed_measure_isr)
 170:motor.c       **** {
ARM GAS  C:\Users\IlyR\AppData\Local\Temp\ccLKIBiW.s 			page 10


 342              		.loc 1 170 0
 343              		.cfi_startproc
 344              		@ args = 0, pretend = 0, frame = 24
 345              		@ frame_needed = 1, uses_anonymous_args = 0
 346 0000 B0B5     		push	{r4, r5, r7, lr}
 347              		.cfi_def_cfa_offset 16
 348              		.cfi_offset 4, -16
 349              		.cfi_offset 5, -12
 350              		.cfi_offset 7, -8
 351              		.cfi_offset 14, -4
 352 0002 86B0     		sub	sp, sp, #24
 353              		.cfi_def_cfa_offset 40
 354 0004 00AF     		add	r7, sp, #0
 355              		.cfi_def_cfa_register 7
 171:motor.c       ****     #if 0
 172:motor.c       ****     uint16 cntCaptur = 0;
 173:motor.c       ****     uint16 timeConst = 5405; // 4730 for 20-5 RPM, 5405 for 2 RPM 
 174:motor.c       ****     
 175:motor.c       ****     cntCaptur = Counter_Spd_ReadCapture();
 176:motor.c       **** 	
 177:motor.c       **** 	speedCur = preCntCaptur - cntCaptur;
 178:motor.c       **** 	
 179:motor.c       ****     /* filter for speed measured */
 180:motor.c       **** //    speedCur = (uint16) ((float32)(3 * preSpeedCur + speedCur) / 4);
 181:motor.c       ****     speedCur = (preSpeedCur >> 2) + (preSpeedCur >> 1) + (speedCur >> 2);
 182:motor.c       ****     
 183:motor.c       ****     /* calculate hall effect sensor ticks for position sensing */
 184:motor.c       **** //    if (UI_Data.Dir == CLOCK_WISE) {
 185:motor.c       **** //        hallCount += speedCur;
 186:motor.c       **** //    } else if (UI_Data.Dir == COUNTER_CLOCK_WISE) {
 187:motor.c       **** //        hallCount -= speedCur;
 188:motor.c       **** //    }
 189:motor.c       **** 
 190:motor.c       ****     /* Each electrical revolution = 6 Hall transitions (for 3 Hall sensors in a BLDC motor) */
 191:motor.c       **** 	/* Each mechanical revolution = 4 electrical revolutions (since there are 4 pole pairs) */
 192:motor.c       ****     /* Each motor degree of rotation/position = 1/360 mechanical revolutions */
 193:motor.c       ****     /* Each gearbox output rotation/position = gear ratio motor degree of rotation/position */
 194:motor.c       ****     /*  360.0 / (6.0 * 4.0) = 15*/
 195:motor.c       ****     if (UI_Data.Dir == CLOCK_WISE) {
 196:motor.c       ****         UI_Data.angularPos += ((float) cntCaptur) * 360.0 / (6.0 * 4.0) / ((float) UI_Data.gearRati
 197:motor.c       ****     } else if (UI_Data.Dir == COUNTER_CLOCK_WISE) {
 198:motor.c       ****         UI_Data.angularPos -= ((float) cntCaptur) * 360.0 / (6.0 * 4.0) / ((float) UI_Data.gearRati
 199:motor.c       ****     }
 200:motor.c       **** //    float32 temp3 = ((float) UI_Data.timeBetweenHallSamples) * 0.001f;
 201:motor.c       **** //    if (UI_Data.timeBetweenHallSamples <= 100) {
 202:motor.c       **** //        if (UI_Data.Dir == CLOCK_WISE) {
 203:motor.c       **** //            UI_Data.angularPos += ((float)speedCur) / 60.0 * temp3 * 15.0 / ((float) UI_Data.gear
 204:motor.c       **** //        } else if (UI_Data.Dir == COUNTER_CLOCK_WISE) {
 205:motor.c       **** //            UI_Data.angularPos -= ((float)speedCur) /60.0 * temp3 * 15.0 / ((float) UI_Data.gearR
 206:motor.c       **** //        }
 207:motor.c       **** //    }
 208:motor.c       ****     
 209:motor.c       ****     
 210:motor.c       ****     if (UI_Data.angularPos >= 360.0) { // clockwise
 211:motor.c       ****         while (UI_Data.angularPos >= 360.0) {
 212:motor.c       ****             UI_Data.angularPos -= 360.0;
 213:motor.c       ****             UI_Data.spinCount++;
ARM GAS  C:\Users\IlyR\AppData\Local\Temp\ccLKIBiW.s 			page 11


 214:motor.c       ****         }
 215:motor.c       ****     } else if (UI_Data.angularPos <= -360.0) { //anticlockwise
 216:motor.c       ****         while (UI_Data.angularPos <= -360.0) {
 217:motor.c       ****             UI_Data.angularPos += 360.0;
 218:motor.c       ****             UI_Data.spinCount--;
 219:motor.c       ****         }
 220:motor.c       ****     }
 221:motor.c       **** 
 222:motor.c       ****     preCntCaptur = cntCaptur;
 223:motor.c       **** 	preSpeedCur = speedCur; 
 224:motor.c       ****     UI_Data.timeBetweenHallSamples = 0;
 225:motor.c       **** 	
 226:motor.c       **** 	Counter_Spd_ClearInterrupt(Counter_Spd_INTR_MASK_CC_MATCH);
 227:motor.c       ****     
 228:motor.c       ****     #else
 229:motor.c       ****     
 230:motor.c       ****     uint16 cntCaptur = Counter_Spd_ReadCapture();
 356              		.loc 1 230 0
 357 0006 FFF7FEFF 		bl	Counter_Spd_ReadCapture
 358 000a 0200     		movs	r2, r0
 359 000c 1623     		movs	r3, #22
 360 000e FB18     		adds	r3, r7, r3
 361 0010 1A80     		strh	r2, [r3]
 231:motor.c       ****     static uint16 preCntCaptur = 0;
 232:motor.c       ****     static float preSpeedCur = 0;
 233:motor.c       ****     
 234:motor.c       ****     // Compute the time difference (handle overflow)
 235:motor.c       ****     speedCur = preCntCaptur - cntCaptur;
 362              		.loc 1 235 0
 363 0012 674B     		ldr	r3, .L23
 364 0014 1A88     		ldrh	r2, [r3]
 365 0016 1623     		movs	r3, #22
 366 0018 FB18     		adds	r3, r7, r3
 367 001a 1B88     		ldrh	r3, [r3]
 368 001c D31A     		subs	r3, r2, r3
 369 001e 9AB2     		uxth	r2, r3
 370 0020 644B     		ldr	r3, .L23+4
 371 0022 1A80     		strh	r2, [r3]
 236:motor.c       **** //    if (speedCur < 0) {
 237:motor.c       **** //        speedCur += 65535; // Timer overflow handling
 238:motor.c       **** //    }
 239:motor.c       **** 
 240:motor.c       ****     // Apply filtering (EMA)
 241:motor.c       **** //    speedCur = (0.25f * preSpeedCur) + (0.75f * speedCur);
 242:motor.c       ****     
 243:motor.c       ****     // Convert to RPM (assuming 200 kHz clock) , 4 Hall pulses per rev as only one hall sensor is u
 244:motor.c       ****     // Assuming 100 kHz clock
 245:motor.c       ****     // Assuming 4 Hall pulses per Revolution (only one hall sensor used, 4 Pole Pairs)
 246:motor.c       ****     float speedRpmFloat = (60.0f * 100000.0f) / ((float)speedCur * 4.0f);
 372              		.loc 1 246 0
 373 0024 634B     		ldr	r3, .L23+4
 374 0026 1B88     		ldrh	r3, [r3]
 375 0028 1800     		movs	r0, r3
 376 002a FFF7FEFF 		bl	__aeabi_ui2f
 377 002e 031C     		adds	r3, r0, #0
 378 0030 8121     		movs	r1, #129
 379 0032 C905     		lsls	r1, r1, #23
ARM GAS  C:\Users\IlyR\AppData\Local\Temp\ccLKIBiW.s 			page 12


 380 0034 181C     		adds	r0, r3, #0
 381 0036 FFF7FEFF 		bl	__aeabi_fmul
 382 003a 031C     		adds	r3, r0, #0
 383 003c 191C     		adds	r1, r3, #0
 384 003e 5E48     		ldr	r0, .L23+8
 385 0040 FFF7FEFF 		bl	__aeabi_fdiv
 386 0044 031C     		adds	r3, r0, #0
 387 0046 3B61     		str	r3, [r7, #16]
 247:motor.c       ****     UI_Data.speedRpm = speedRpmFloat;
 388              		.loc 1 247 0
 389 0048 3869     		ldr	r0, [r7, #16]
 390 004a FFF7FEFF 		bl	__aeabi_f2uiz
 391 004e 0300     		movs	r3, r0
 392 0050 9AB2     		uxth	r2, r3
 393 0052 5A4B     		ldr	r3, .L23+12
 394 0054 1A81     		strh	r2, [r3, #8]
 248:motor.c       ****     
 249:motor.c       ****     // Compute delta angle (degrees)
 250:motor.c       ****     float dt = UI_Data.timeBetweenHallSamples * 0.001f; // Convert ms to seconds
 395              		.loc 1 250 0
 396 0056 594B     		ldr	r3, .L23+12
 397 0058 DB8A     		ldrh	r3, [r3, #22]
 398 005a 1800     		movs	r0, r3
 399 005c FFF7FEFF 		bl	__aeabi_i2f
 400 0060 031C     		adds	r3, r0, #0
 401 0062 5749     		ldr	r1, .L23+16
 402 0064 181C     		adds	r0, r3, #0
 403 0066 FFF7FEFF 		bl	__aeabi_fmul
 404 006a 031C     		adds	r3, r0, #0
 405 006c FB60     		str	r3, [r7, #12]
 251:motor.c       ****     float angularSpeed = speedRpmFloat * 6.0f; // Convert RPM to degrees per second
 406              		.loc 1 251 0
 407 006e 5549     		ldr	r1, .L23+20
 408 0070 3869     		ldr	r0, [r7, #16]
 409 0072 FFF7FEFF 		bl	__aeabi_fmul
 410 0076 031C     		adds	r3, r0, #0
 411 0078 BB60     		str	r3, [r7, #8]
 252:motor.c       ****     float deltaAngle = angularSpeed * dt;
 412              		.loc 1 252 0
 413 007a F968     		ldr	r1, [r7, #12]
 414 007c B868     		ldr	r0, [r7, #8]
 415 007e FFF7FEFF 		bl	__aeabi_fmul
 416 0082 031C     		adds	r3, r0, #0
 417 0084 7B60     		str	r3, [r7, #4]
 253:motor.c       **** 
 254:motor.c       ****     // Update angular position
 255:motor.c       ****     if (UI_Data.timeBetweenHallSamples <= 100) {
 418              		.loc 1 255 0
 419 0086 4D4B     		ldr	r3, .L23+12
 420 0088 DB8A     		ldrh	r3, [r3, #22]
 421 008a 642B     		cmp	r3, #100
 422 008c 3CD8     		bhi	.L14
 256:motor.c       ****         if (UI_Data.Dir == CLOCK_WISE) {
 423              		.loc 1 256 0
 424 008e 4B4B     		ldr	r3, .L23+12
 425 0090 1B79     		ldrb	r3, [r3, #4]
 426 0092 002B     		cmp	r3, #0
ARM GAS  C:\Users\IlyR\AppData\Local\Temp\ccLKIBiW.s 			page 13


 427 0094 1CD1     		bne	.L15
 257:motor.c       ****             UI_Data.angularPos += deltaAngle / UI_Data.gearRatio;
 428              		.loc 1 257 0
 429 0096 494B     		ldr	r3, .L23+12
 430 0098 9C69     		ldr	r4, [r3, #24]
 431 009a DD69     		ldr	r5, [r3, #28]
 432 009c 474B     		ldr	r3, .L23+12
 433 009e DB88     		ldrh	r3, [r3, #6]
 434 00a0 1800     		movs	r0, r3
 435 00a2 FFF7FEFF 		bl	__aeabi_i2f
 436 00a6 031C     		adds	r3, r0, #0
 437 00a8 191C     		adds	r1, r3, #0
 438 00aa 7868     		ldr	r0, [r7, #4]
 439 00ac FFF7FEFF 		bl	__aeabi_fdiv
 440 00b0 031C     		adds	r3, r0, #0
 441 00b2 181C     		adds	r0, r3, #0
 442 00b4 FFF7FEFF 		bl	__aeabi_f2d
 443 00b8 0200     		movs	r2, r0
 444 00ba 0B00     		movs	r3, r1
 445 00bc 2000     		movs	r0, r4
 446 00be 2900     		movs	r1, r5
 447 00c0 FFF7FEFF 		bl	__aeabi_dadd
 448 00c4 0300     		movs	r3, r0
 449 00c6 0C00     		movs	r4, r1
 450 00c8 3C4A     		ldr	r2, .L23+12
 451 00ca 9361     		str	r3, [r2, #24]
 452 00cc D461     		str	r4, [r2, #28]
 453 00ce 1BE0     		b	.L14
 454              	.L15:
 258:motor.c       ****         } else {
 259:motor.c       ****             UI_Data.angularPos -= deltaAngle / UI_Data.gearRatio;
 455              		.loc 1 259 0
 456 00d0 3A4B     		ldr	r3, .L23+12
 457 00d2 9C69     		ldr	r4, [r3, #24]
 458 00d4 DD69     		ldr	r5, [r3, #28]
 459 00d6 394B     		ldr	r3, .L23+12
 460 00d8 DB88     		ldrh	r3, [r3, #6]
 461 00da 1800     		movs	r0, r3
 462 00dc FFF7FEFF 		bl	__aeabi_i2f
 463 00e0 031C     		adds	r3, r0, #0
 464 00e2 191C     		adds	r1, r3, #0
 465 00e4 7868     		ldr	r0, [r7, #4]
 466 00e6 FFF7FEFF 		bl	__aeabi_fdiv
 467 00ea 031C     		adds	r3, r0, #0
 468 00ec 181C     		adds	r0, r3, #0
 469 00ee FFF7FEFF 		bl	__aeabi_f2d
 470 00f2 0200     		movs	r2, r0
 471 00f4 0B00     		movs	r3, r1
 472 00f6 2000     		movs	r0, r4
 473 00f8 2900     		movs	r1, r5
 474 00fa FFF7FEFF 		bl	__aeabi_dsub
 475 00fe 0300     		movs	r3, r0
 476 0100 0C00     		movs	r4, r1
 477 0102 2E4A     		ldr	r2, .L23+12
 478 0104 9361     		str	r3, [r2, #24]
 479 0106 D461     		str	r4, [r2, #28]
 480              	.L14:
ARM GAS  C:\Users\IlyR\AppData\Local\Temp\ccLKIBiW.s 			page 14


 260:motor.c       ****         }
 261:motor.c       ****     }
 262:motor.c       **** 
 263:motor.c       ****     // Prevent overflow of angular position
 264:motor.c       ****     if (UI_Data.angularPos >= 360.0f) {
 481              		.loc 1 264 0
 482 0108 2C4B     		ldr	r3, .L23+12
 483 010a 9869     		ldr	r0, [r3, #24]
 484 010c D969     		ldr	r1, [r3, #28]
 485 010e 0022     		movs	r2, #0
 486 0110 2D4B     		ldr	r3, .L23+24
 487 0112 FFF7FEFF 		bl	__aeabi_dcmpge
 488 0116 031E     		subs	r3, r0, #0
 489 0118 15D0     		beq	.L22
 265:motor.c       ****         UI_Data.angularPos -= 360.0f;
 490              		.loc 1 265 0
 491 011a 284B     		ldr	r3, .L23+12
 492 011c 9869     		ldr	r0, [r3, #24]
 493 011e D969     		ldr	r1, [r3, #28]
 494 0120 0022     		movs	r2, #0
 495 0122 294B     		ldr	r3, .L23+24
 496 0124 FFF7FEFF 		bl	__aeabi_dsub
 497 0128 0300     		movs	r3, r0
 498 012a 0C00     		movs	r4, r1
 499 012c 234A     		ldr	r2, .L23+12
 500 012e 9361     		str	r3, [r2, #24]
 501 0130 D461     		str	r4, [r2, #28]
 266:motor.c       ****         UI_Data.spinCount++;
 502              		.loc 1 266 0
 503 0132 224B     		ldr	r3, .L23+12
 504 0134 2022     		movs	r2, #32
 505 0136 9B5E     		ldrsh	r3, [r3, r2]
 506 0138 9BB2     		uxth	r3, r3
 507 013a 0133     		adds	r3, r3, #1
 508 013c 9BB2     		uxth	r3, r3
 509 013e 1AB2     		sxth	r2, r3
 510 0140 1E4B     		ldr	r3, .L23+12
 511 0142 1A84     		strh	r2, [r3, #32]
 512 0144 1DE0     		b	.L18
 513              	.L22:
 267:motor.c       ****     } else if (UI_Data.angularPos <= -360.0f) {
 514              		.loc 1 267 0
 515 0146 1D4B     		ldr	r3, .L23+12
 516 0148 9869     		ldr	r0, [r3, #24]
 517 014a D969     		ldr	r1, [r3, #28]
 518 014c 0022     		movs	r2, #0
 519 014e 1F4B     		ldr	r3, .L23+28
 520 0150 FFF7FEFF 		bl	__aeabi_dcmple
 521 0154 031E     		subs	r3, r0, #0
 522 0156 14D0     		beq	.L18
 268:motor.c       ****         UI_Data.angularPos += 360.0f;
 523              		.loc 1 268 0
 524 0158 184B     		ldr	r3, .L23+12
 525 015a 9869     		ldr	r0, [r3, #24]
 526 015c D969     		ldr	r1, [r3, #28]
 527 015e 0022     		movs	r2, #0
 528 0160 194B     		ldr	r3, .L23+24
ARM GAS  C:\Users\IlyR\AppData\Local\Temp\ccLKIBiW.s 			page 15


 529 0162 FFF7FEFF 		bl	__aeabi_dadd
 530 0166 0300     		movs	r3, r0
 531 0168 0C00     		movs	r4, r1
 532 016a 144A     		ldr	r2, .L23+12
 533 016c 9361     		str	r3, [r2, #24]
 534 016e D461     		str	r4, [r2, #28]
 269:motor.c       ****         UI_Data.spinCount--;
 535              		.loc 1 269 0
 536 0170 124B     		ldr	r3, .L23+12
 537 0172 2022     		movs	r2, #32
 538 0174 9B5E     		ldrsh	r3, [r3, r2]
 539 0176 9BB2     		uxth	r3, r3
 540 0178 013B     		subs	r3, r3, #1
 541 017a 9BB2     		uxth	r3, r3
 542 017c 1AB2     		sxth	r2, r3
 543 017e 0F4B     		ldr	r3, .L23+12
 544 0180 1A84     		strh	r2, [r3, #32]
 545              	.L18:
 270:motor.c       ****     }
 271:motor.c       **** 
 272:motor.c       ****     // Store values for next cycle
 273:motor.c       ****     preCntCaptur = cntCaptur;
 546              		.loc 1 273 0
 547 0182 0B4B     		ldr	r3, .L23
 548 0184 1622     		movs	r2, #22
 549 0186 BA18     		adds	r2, r7, r2
 550 0188 1288     		ldrh	r2, [r2]
 551 018a 1A80     		strh	r2, [r3]
 274:motor.c       ****     preSpeedCur = speedCur;
 552              		.loc 1 274 0
 553 018c 094B     		ldr	r3, .L23+4
 554 018e 1B88     		ldrh	r3, [r3]
 555 0190 1800     		movs	r0, r3
 556 0192 FFF7FEFF 		bl	__aeabi_ui2f
 557 0196 021C     		adds	r2, r0, #0
 558 0198 0D4B     		ldr	r3, .L23+32
 559 019a 1A60     		str	r2, [r3]
 275:motor.c       ****     UI_Data.timeBetweenHallSamples = 0;
 560              		.loc 1 275 0
 561 019c 074B     		ldr	r3, .L23+12
 562 019e 0022     		movs	r2, #0
 563 01a0 DA82     		strh	r2, [r3, #22]
 276:motor.c       ****     
 277:motor.c       ****     // Clear interrupt flag
 278:motor.c       ****     Counter_Spd_ClearInterrupt(Counter_Spd_INTR_MASK_CC_MATCH);
 564              		.loc 1 278 0
 565 01a2 0220     		movs	r0, #2
 566 01a4 FFF7FEFF 		bl	Counter_Spd_ClearInterrupt
 279:motor.c       ****     #endif
 280:motor.c       **** }
 567              		.loc 1 280 0
 568 01a8 C046     		nop
 569 01aa BD46     		mov	sp, r7
 570 01ac 06B0     		add	sp, sp, #24
 571              		@ sp needed
 572 01ae B0BD     		pop	{r4, r5, r7, pc}
 573              	.L24:
ARM GAS  C:\Users\IlyR\AppData\Local\Temp\ccLKIBiW.s 			page 16


 574              		.align	2
 575              	.L23:
 576 01b0 22000000 		.word	preCntCaptur.6242
 577 01b4 00000000 		.word	speedCur
 578 01b8 001BB74A 		.word	1253513984
 579 01bc 00000000 		.word	UI_Data
 580 01c0 6F12833A 		.word	981668463
 581 01c4 0000C040 		.word	1086324736
 582 01c8 00807640 		.word	1081507840
 583 01cc 008076C0 		.word	-1065975808
 584 01d0 24000000 		.word	preSpeedCur.6243
 585              		.cfi_endproc
 586              	.LFE35:
 587              		.size	speed_measure_isr, .-speed_measure_isr
 588              		.section	.text.over_current_isr,"ax",%progbits
 589              		.align	2
 590              		.global	over_current_isr
 591              		.code	16
 592              		.thumb_func
 593              		.type	over_current_isr, %function
 594              	over_current_isr:
 595              	.LFB36:
 281:motor.c       **** 
 282:motor.c       **** /*******************************************************************************
 283:motor.c       **** * Function Name: over_current_isr
 284:motor.c       **** ********************************************************************************
 285:motor.c       **** *
 286:motor.c       **** * Summary:
 287:motor.c       **** * This function is ISR for over current protection. It updates the error state flag. 
 288:motor.c       **** *                  
 289:motor.c       **** * Parameters: None
 290:motor.c       **** *
 291:motor.c       **** * Return: None
 292:motor.c       **** *
 293:motor.c       **** *******************************************************************************/
 294:motor.c       **** CY_ISR(over_current_isr)
 295:motor.c       **** {	
 596              		.loc 1 295 0
 597              		.cfi_startproc
 598              		@ args = 0, pretend = 0, frame = 0
 599              		@ frame_needed = 1, uses_anonymous_args = 0
 600 0000 B0B5     		push	{r4, r5, r7, lr}
 601              		.cfi_def_cfa_offset 16
 602              		.cfi_offset 4, -16
 603              		.cfi_offset 5, -12
 604              		.cfi_offset 7, -8
 605              		.cfi_offset 14, -4
 606 0002 00AF     		add	r7, sp, #0
 607              		.cfi_def_cfa_register 7
 296:motor.c       ****     if (UI_Data.motorWindupOvercurrentDisable == 0) {
 608              		.loc 1 296 0
 609 0004 134B     		ldr	r3, .L29
 610 0006 1B8D     		ldrh	r3, [r3, #40]
 611 0008 002B     		cmp	r3, #0
 612 000a 1FD1     		bne	.L28
 297:motor.c       ****         if (UI_Data.programStateManchineState == 0) {   /* Initial homing complete - continue to ne
 613              		.loc 1 297 0
ARM GAS  C:\Users\IlyR\AppData\Local\Temp\ccLKIBiW.s 			page 17


 614 000c 114B     		ldr	r3, .L29
 615 000e 2322     		movs	r2, #35
 616 0010 9B5C     		ldrb	r3, [r3, r2]
 617 0012 002B     		cmp	r3, #0
 618 0014 12D1     		bne	.L27
 298:motor.c       ****             UI_Data.programStateManchineState = 2;
 619              		.loc 1 298 0
 620 0016 0F4B     		ldr	r3, .L29
 621 0018 2322     		movs	r2, #35
 622 001a 0221     		movs	r1, #2
 623 001c 9954     		strb	r1, [r3, r2]
 299:motor.c       ****             
 300:motor.c       ****             UI_Data.changeDirection = TRUE;
 624              		.loc 1 300 0
 625 001e 0D4B     		ldr	r3, .L29
 626 0020 2222     		movs	r2, #34
 627 0022 0121     		movs	r1, #1
 628 0024 9954     		strb	r1, [r3, r2]
 301:motor.c       ****             UI_Data.angularPos = -55.0;
 629              		.loc 1 301 0
 630 0026 0B4A     		ldr	r2, .L29
 631 0028 0023     		movs	r3, #0
 632 002a 0B4C     		ldr	r4, .L29+4
 633 002c 9361     		str	r3, [r2, #24]
 634 002e D461     		str	r4, [r2, #28]
 302:motor.c       ****             
 303:motor.c       ****             resetPIOut();
 635              		.loc 1 303 0
 636 0030 FFF7FEFF 		bl	resetPIOut
 304:motor.c       ****             
 305:motor.c       ****             UI_Cmd.run = FALSE;
 637              		.loc 1 305 0
 638 0034 094B     		ldr	r3, .L29+8
 639 0036 0022     		movs	r2, #0
 640 0038 1A70     		strb	r2, [r3]
 306:motor.c       ****             
 307:motor.c       **** //            IDAC_Iref_SetValue(MAX_CURR_DEFAULT);
 308:motor.c       ****         } else {                                        /* Unforseen overcurrent happens, stop moto
 309:motor.c       ****             UpdateStatusError();		
 310:motor.c       ****             errorState = overCur;
 311:motor.c       ****             LPComp_OC_ClearInterrupt(LPComp_OC_INTR_RISING);
 312:motor.c       ****         }
 313:motor.c       ****     }
 314:motor.c       **** }
 641              		.loc 1 314 0
 642 003a 07E0     		b	.L28
 643              	.L27:
 309:motor.c       ****             errorState = overCur;
 644              		.loc 1 309 0
 645 003c FFF7FEFF 		bl	UpdateStatusError
 310:motor.c       ****             LPComp_OC_ClearInterrupt(LPComp_OC_INTR_RISING);
 646              		.loc 1 310 0
 647 0040 074B     		ldr	r3, .L29+12
 648 0042 0122     		movs	r2, #1
 649 0044 1A70     		strb	r2, [r3]
 311:motor.c       ****         }
 650              		.loc 1 311 0
ARM GAS  C:\Users\IlyR\AppData\Local\Temp\ccLKIBiW.s 			page 18


 651 0046 0120     		movs	r0, #1
 652 0048 FFF7FEFF 		bl	LPComp_OC_ClearInterrupt
 653              	.L28:
 654              		.loc 1 314 0
 655 004c C046     		nop
 656 004e BD46     		mov	sp, r7
 657              		@ sp needed
 658 0050 B0BD     		pop	{r4, r5, r7, pc}
 659              	.L30:
 660 0052 C046     		.align	2
 661              	.L29:
 662 0054 00000000 		.word	UI_Data
 663 0058 00804BC0 		.word	-1068793856
 664 005c 00000000 		.word	UI_Cmd
 665 0060 00000000 		.word	errorState
 666              		.cfi_endproc
 667              	.LFE36:
 668              		.size	over_current_isr, .-over_current_isr
 669              		.section	.text.Init_UI_FW,"ax",%progbits
 670              		.align	2
 671              		.global	Init_UI_FW
 672              		.code	16
 673              		.thumb_func
 674              		.type	Init_UI_FW, %function
 675              	Init_UI_FW:
 676              	.LFB37:
 315:motor.c       **** 
 316:motor.c       **** /*******************************************************************************
 317:motor.c       **** * Function Name: Init_UI_FW
 318:motor.c       **** ********************************************************************************
 319:motor.c       **** * Summary: This function initializes parameters used in motor running.
 320:motor.c       **** *  
 321:motor.c       **** * Parameters: None  
 322:motor.c       **** *
 323:motor.c       **** * Return: None
 324:motor.c       **** *  
 325:motor.c       **** *******************************************************************************/
 326:motor.c       **** 
 327:motor.c       **** void Init_UI_FW(void)
 328:motor.c       **** {
 677              		.loc 1 328 0
 678              		.cfi_startproc
 679              		@ args = 0, pretend = 0, frame = 0
 680              		@ frame_needed = 1, uses_anonymous_args = 0
 681 0000 90B5     		push	{r4, r7, lr}
 682              		.cfi_def_cfa_offset 12
 683              		.cfi_offset 4, -12
 684              		.cfi_offset 7, -8
 685              		.cfi_offset 14, -4
 686 0002 00AF     		add	r7, sp, #0
 687              		.cfi_def_cfa_register 7
 329:motor.c       ****     /* Setting UI Initial parameter*/
 330:motor.c       **** 	UI_Data.Dir = COUNTER_CLOCK_WISE;				
 688              		.loc 1 330 0
 689 0004 134B     		ldr	r3, .L32
 690 0006 0122     		movs	r2, #1
 691 0008 1A71     		strb	r2, [r3, #4]
ARM GAS  C:\Users\IlyR\AppData\Local\Temp\ccLKIBiW.s 			page 19


 331:motor.c       ****     UI_Data.maxSpeedRpm = 4000;
 692              		.loc 1 331 0
 693 000a 124B     		ldr	r3, .L32
 694 000c FA22     		movs	r2, #250
 695 000e 1201     		lsls	r2, r2, #4
 696 0010 1A82     		strh	r2, [r3, #16]
 332:motor.c       ****     UI_Data.minSpeedRpm = 0; /* used to be 500, reduced to accomodate low brace rpm*/
 697              		.loc 1 332 0
 698 0012 104B     		ldr	r3, .L32
 699 0014 0022     		movs	r2, #0
 700 0016 5A82     		strh	r2, [r3, #18]
 333:motor.c       ****     UI_Data.speedRpmRef = 4;
 701              		.loc 1 333 0
 702 0018 0E4B     		ldr	r3, .L32
 703 001a 0422     		movs	r2, #4
 704 001c 5A81     		strh	r2, [r3, #10]
 334:motor.c       ****     UI_Data.gearRatio = 100;
 705              		.loc 1 334 0
 706 001e 0D4B     		ldr	r3, .L32
 707 0020 6422     		movs	r2, #100
 708 0022 DA80     		strh	r2, [r3, #6]
 335:motor.c       ****     UI_Data.polePairs = 4;
 709              		.loc 1 335 0
 710 0024 0B4B     		ldr	r3, .L32
 711 0026 0422     		movs	r2, #4
 712 0028 1A75     		strb	r2, [r3, #20]
 336:motor.c       ****     UI_Data.maxCurr = MAX_CURR_MEDIUM; 
 713              		.loc 1 336 0
 714 002a 0A4B     		ldr	r3, .L32
 715 002c 4B22     		movs	r2, #75
 716 002e 5A75     		strb	r2, [r3, #21]
 337:motor.c       ****     UI_Data.angularPos = 0;
 717              		.loc 1 337 0
 718 0030 084A     		ldr	r2, .L32
 719 0032 0023     		movs	r3, #0
 720 0034 0024     		movs	r4, #0
 721 0036 9361     		str	r3, [r2, #24]
 722 0038 D461     		str	r4, [r2, #28]
 338:motor.c       ****     UI_Data.kp = 10;   // original: 500
 723              		.loc 1 338 0
 724 003a 064B     		ldr	r3, .L32
 725 003c 0A22     		movs	r2, #10
 726 003e 9A81     		strh	r2, [r3, #12]
 339:motor.c       ****     UI_Data.ki = 10;    // original: 50
 727              		.loc 1 339 0
 728 0040 044B     		ldr	r3, .L32
 729 0042 0A22     		movs	r2, #10
 730 0044 DA81     		strh	r2, [r3, #14]
 340:motor.c       **** 	
 341:motor.c       ****     UI_Data.motorWindupOvercurrentDisable = 1;  // turned off after first few PWM cycles
 731              		.loc 1 341 0
 732 0046 034B     		ldr	r3, .L32
 733 0048 0122     		movs	r2, #1
 734 004a 1A85     		strh	r2, [r3, #40]
 342:motor.c       **** }
 735              		.loc 1 342 0
 736 004c C046     		nop
ARM GAS  C:\Users\IlyR\AppData\Local\Temp\ccLKIBiW.s 			page 20


 737 004e BD46     		mov	sp, r7
 738              		@ sp needed
 739 0050 90BD     		pop	{r4, r7, pc}
 740              	.L33:
 741 0052 C046     		.align	2
 742              	.L32:
 743 0054 00000000 		.word	UI_Data
 744              		.cfi_endproc
 745              	.LFE37:
 746              		.size	Init_UI_FW, .-Init_UI_FW
 747              		.section	.text.Init_HW,"ax",%progbits
 748              		.align	2
 749              		.global	Init_HW
 750              		.code	16
 751              		.thumb_func
 752              		.type	Init_HW, %function
 753              	Init_HW:
 754              	.LFB38:
 343:motor.c       **** 
 344:motor.c       **** 
 345:motor.c       **** /*******************************************************************************
 346:motor.c       **** * Function Name: Init_HW
 347:motor.c       **** ********************************************************************************
 348:motor.c       **** * Summary: This function initializes system hardware peripherals 
 349:motor.c       **** *  
 350:motor.c       **** * Parameters: None  
 351:motor.c       **** *
 352:motor.c       **** * Return: None
 353:motor.c       **** *  
 354:motor.c       **** *******************************************************************************/
 355:motor.c       **** 
 356:motor.c       **** void Init_HW(void)
 357:motor.c       **** {
 755              		.loc 1 357 0
 756              		.cfi_startproc
 757              		@ args = 0, pretend = 0, frame = 0
 758              		@ frame_needed = 1, uses_anonymous_args = 0
 759 0000 80B5     		push	{r7, lr}
 760              		.cfi_def_cfa_offset 8
 761              		.cfi_offset 7, -8
 762              		.cfi_offset 14, -4
 763 0002 00AF     		add	r7, sp, #0
 764              		.cfi_def_cfa_register 7
 358:motor.c       ****     /*PWM Initialization*/
 359:motor.c       **** 	PWM_Drive_Start();
 765              		.loc 1 359 0
 766 0004 FFF7FEFF 		bl	PWM_Drive_Start
 360:motor.c       ****     /*Enable PWM, disable PWM IO output*/
 361:motor.c       ****     CtrlReg_PWMOut_Write(0x01);       
 767              		.loc 1 361 0
 768 0008 0120     		movs	r0, #1
 769 000a FFF7FEFF 		bl	CtrlReg_PWMOut_Write
 362:motor.c       ****    
 363:motor.c       **** 	/*Speed Counter Initialization*/
 364:motor.c       **** 	Counter_Spd_Start();
 770              		.loc 1 364 0
 771 000e FFF7FEFF 		bl	Counter_Spd_Start
ARM GAS  C:\Users\IlyR\AppData\Local\Temp\ccLKIBiW.s 			page 21


 365:motor.c       **** 	
 366:motor.c       ****     /*Time Counter Initialization*/
 367:motor.c       ****     Timer_1_Start();
 772              		.loc 1 367 0
 773 0012 FFF7FEFF 		bl	Timer_1_Start
 368:motor.c       ****     Timer_1_Enable();
 774              		.loc 1 368 0
 775 0016 FFF7FEFF 		bl	Timer_1_Enable
 369:motor.c       ****     
 370:motor.c       ****     /*For voltage sample*/
 371:motor.c       **** 	ADC_SAR_Seq_1_Start();
 776              		.loc 1 371 0
 777 001a FFF7FEFF 		bl	ADC_SAR_Seq_1_Start
 372:motor.c       ****     
 373:motor.c       ****     /*For over current protection*/
 374:motor.c       **** 	IDAC_Iref_Start();
 778              		.loc 1 374 0
 779 001e FFF7FEFF 		bl	IDAC_Iref_Start
 375:motor.c       ****     IDAC_Iref_SetValue(MAX_CURR_HOMING);
 780              		.loc 1 375 0
 781 0022 0620     		movs	r0, #6
 782 0024 FFF7FEFF 		bl	IDAC_Iref_SetValue
 376:motor.c       ****     
 377:motor.c       ****     LPComp_OC_Start();
 783              		.loc 1 377 0
 784 0028 FFF7FEFF 		bl	LPComp_OC_Start
 378:motor.c       **** 	
 379:motor.c       ****     /*UART Init*/
 380:motor.c       ****     UART_BCP_Start();
 785              		.loc 1 380 0
 786 002c FFF7FEFF 		bl	UART_BCP_Start
 381:motor.c       **** 
 382:motor.c       **** 	isr_timeMeasurementForSpeed_Start();
 787              		.loc 1 382 0
 788 0030 FFF7FEFF 		bl	isr_timeMeasurementForSpeed_Start
 383:motor.c       **** 	isr_timeMeasurementForSpeed_StartEx(time_isr);
 789              		.loc 1 383 0
 790 0034 104B     		ldr	r3, .L35
 791 0036 1800     		movs	r0, r3
 792 0038 FFF7FEFF 		bl	isr_timeMeasurementForSpeed_StartEx
 384:motor.c       **** 	isr_timeMeasurementForSpeed_Enable();
 793              		.loc 1 384 0
 794 003c FFF7FEFF 		bl	isr_timeMeasurementForSpeed_Enable
 385:motor.c       **** 
 386:motor.c       **** 	isr_pwm_Start();
 795              		.loc 1 386 0
 796 0040 FFF7FEFF 		bl	isr_pwm_Start
 387:motor.c       **** 	isr_pwm_StartEx(pwm_isr);
 797              		.loc 1 387 0
 798 0044 0D4B     		ldr	r3, .L35+4
 799 0046 1800     		movs	r0, r3
 800 0048 FFF7FEFF 		bl	isr_pwm_StartEx
 388:motor.c       **** 	isr_pwm_Enable();  
 801              		.loc 1 388 0
 802 004c FFF7FEFF 		bl	isr_pwm_Enable
 389:motor.c       **** 	
 390:motor.c       **** 	isr_spd_Start(); 
ARM GAS  C:\Users\IlyR\AppData\Local\Temp\ccLKIBiW.s 			page 22


 803              		.loc 1 390 0
 804 0050 FFF7FEFF 		bl	isr_spd_Start
 391:motor.c       **** 	isr_spd_StartEx(speed_measure_isr);    
 805              		.loc 1 391 0
 806 0054 0A4B     		ldr	r3, .L35+8
 807 0056 1800     		movs	r0, r3
 808 0058 FFF7FEFF 		bl	isr_spd_StartEx
 392:motor.c       **** 	isr_spd_Enable(); 	
 809              		.loc 1 392 0
 810 005c FFF7FEFF 		bl	isr_spd_Enable
 393:motor.c       ****     
 394:motor.c       **** 	isr_oc_Start(); 
 811              		.loc 1 394 0
 812 0060 FFF7FEFF 		bl	isr_oc_Start
 395:motor.c       **** 	isr_oc_StartEx(over_current_isr);    
 813              		.loc 1 395 0
 814 0064 074B     		ldr	r3, .L35+12
 815 0066 1800     		movs	r0, r3
 816 0068 FFF7FEFF 		bl	isr_oc_StartEx
 396:motor.c       **** 	isr_oc_Disable();  
 817              		.loc 1 396 0
 818 006c FFF7FEFF 		bl	isr_oc_Disable
 397:motor.c       **** }
 819              		.loc 1 397 0
 820 0070 C046     		nop
 821 0072 BD46     		mov	sp, r7
 822              		@ sp needed
 823 0074 80BD     		pop	{r7, pc}
 824              	.L36:
 825 0076 C046     		.align	2
 826              	.L35:
 827 0078 00000000 		.word	time_isr
 828 007c 00000000 		.word	pwm_isr
 829 0080 00000000 		.word	speed_measure_isr
 830 0084 00000000 		.word	over_current_isr
 831              		.cfi_endproc
 832              	.LFE38:
 833              		.size	Init_HW, .-Init_HW
 834              		.section	.text.Init_UI_HW,"ax",%progbits
 835              		.align	2
 836              		.global	Init_UI_HW
 837              		.code	16
 838              		.thumb_func
 839              		.type	Init_UI_HW, %function
 840              	Init_UI_HW:
 841              	.LFB39:
 398:motor.c       **** 
 399:motor.c       **** /*******************************************************************************
 400:motor.c       **** * Function Name: Init_UI_HW
 401:motor.c       **** ********************************************************************************
 402:motor.c       **** * Summary: This function initializes hardware peripherals for user interface
 403:motor.c       **** *  
 404:motor.c       **** * Parameters: None  
 405:motor.c       **** *
 406:motor.c       **** * Return: None
 407:motor.c       **** *  
 408:motor.c       **** *******************************************************************************/
ARM GAS  C:\Users\IlyR\AppData\Local\Temp\ccLKIBiW.s 			page 23


 409:motor.c       **** void Init_UI_HW()
 410:motor.c       **** {
 842              		.loc 1 410 0
 843              		.cfi_startproc
 844              		@ args = 0, pretend = 0, frame = 0
 845              		@ frame_needed = 1, uses_anonymous_args = 0
 846 0000 80B5     		push	{r7, lr}
 847              		.cfi_def_cfa_offset 8
 848              		.cfi_offset 7, -8
 849              		.cfi_offset 14, -4
 850 0002 00AF     		add	r7, sp, #0
 851              		.cfi_def_cfa_register 7
 411:motor.c       **** 	UpdateStatusInit();
 852              		.loc 1 411 0
 853 0004 FFF7FEFF 		bl	UpdateStatusInit
 412:motor.c       **** }
 854              		.loc 1 412 0
 855 0008 C046     		nop
 856 000a BD46     		mov	sp, r7
 857              		@ sp needed
 858 000c 80BD     		pop	{r7, pc}
 859              		.cfi_endproc
 860              	.LFE39:
 861              		.size	Init_UI_HW, .-Init_UI_HW
 862 000e C046     		.bss
 863              		.align	1
 864              	preCntCaptur.6242:
 865 0022 0000     		.space	2
 866              		.align	2
 867              	preSpeedCur.6243:
 868 0024 00000000 		.space	4
 869              		.text
 870              	.Letext0:
 871              		.file 2 "Generated_Source\\PSoC4/cytypes.h"
 872              		.file 3 "motor.h"