ARM GAS  C:\Users\IlyR\AppData\Local\Temp\cc4C3nLa.s 			page 1


   1              		.syntax unified
   2              		.cpu cortex-m0
   3              		.fpu softvfp
   4              		.eabi_attribute 20, 1
   5              		.eabi_attribute 21, 1
   6              		.eabi_attribute 23, 3
   7              		.eabi_attribute 24, 1
   8              		.eabi_attribute 25, 1
   9              		.eabi_attribute 26, 1
  10              		.eabi_attribute 30, 6
  11              		.eabi_attribute 34, 0
  12              		.eabi_attribute 18, 4
  13              		.thumb
  14              		.syntax unified
  15              		.file	"speedloop.c"
  16              		.text
  17              	.Ltext0:
  18              		.cfi_sections	.debug_frame
  19              		.global	piOut
  20              		.data
  21              		.align	2
  22              		.type	piOut, %object
  23              		.size	piOut, 4
  24              	piOut:
  25 0000 00000500 		.word	327680
  26              		.comm	speedErr,2,2
  27              		.global	speedErrPrev
  28              		.bss
  29              		.align	1
  30              		.type	speedErrPrev, %object
  31              		.size	speedErrPrev, 2
  32              	speedErrPrev:
  33 0000 0000     		.space	2
  34              		.comm	speedErr2,2,2
  35              		.comm	result,4,4
  36              		.comm	kp,2,2
  37              		.comm	ki,2,2
  38              		.section	.text.SpeedPID,"ax",%progbits
  39              		.align	2
  40              		.global	SpeedPID
  41              		.code	16
  42              		.thumb_func
  43              		.type	SpeedPID, %function
  44              	SpeedPID:
  45              	.LFB32:
  46              		.file 1 "speedloop.c"
   1:speedloop.c   **** /*******************************************************************************
   2:speedloop.c   **** * Project Name		: Sensored BLDC Motor Control
   3:speedloop.c   **** * File Name			: speedloop.c
   4:speedloop.c   **** * Version			: 1.0
   5:speedloop.c   **** * Device Used		: CY8C4245AXI-483     
   6:speedloop.c   **** * Software Used		: PSoC Creator 4.2
   7:speedloop.c   **** * Compiler Used		: ARM GCC 5.4.1 
   8:speedloop.c   **** * Related Hardware  : CY8CKIT-042 PSoC 4 Pioneer Kit + CY8CKIT-037 PSoC 4
   9:speedloop.c   **** *                     Motor Control Evaluation Kit
  10:speedloop.c   **** ******************************************************************************
  11:speedloop.c   **** * Copyright (2018), Cypress Semiconductor Corporation. All rights reserved.
ARM GAS  C:\Users\IlyR\AppData\Local\Temp\cc4C3nLa.s 			page 2


  12:speedloop.c   **** *******************************************************************************
  13:speedloop.c   **** * This software, including source code, documentation and related materials
  14:speedloop.c   **** * (“Software”), is owned by Cypress Semiconductor Corporation or one of its
  15:speedloop.c   **** * subsidiaries (“Cypress”) and is protected by and subject to worldwide patent
  16:speedloop.c   **** * protection (United States and foreign), United States copyright laws and
  17:speedloop.c   **** * international treaty provisions. Therefore, you may use this Software only
  18:speedloop.c   **** * as provided in the license agreement accompanying the software package from
  19:speedloop.c   **** * which you obtained this Software (“EULA”).
  20:speedloop.c   **** *
  21:speedloop.c   **** * If no EULA applies, Cypress hereby grants you a personal, nonexclusive,
  22:speedloop.c   **** * non-transferable license to copy, modify, and compile the Software source
  23:speedloop.c   **** * code solely for use in connection with Cypress’s integrated circuit products.
  24:speedloop.c   **** * Any reproduction, modification, translation, compilation, or representation
  25:speedloop.c   **** * of this Software except as specified above is prohibited without the express
  26:speedloop.c   **** * written permission of Cypress.
  27:speedloop.c   **** *
  28:speedloop.c   **** * Disclaimer: THIS SOFTWARE IS PROVIDED AS-IS, WITH NO WARRANTY OF ANY KIND, 
  29:speedloop.c   **** * EXPRESS OR IMPLIED, INCLUDING, BUT NOT LIMITED TO, NONINFRINGEMENT, IMPLIED 
  30:speedloop.c   **** * WARRANTIES OF MERCHANTABILITY AND FITNESS FOR A PARTICULAR PURPOSE. Cypress 
  31:speedloop.c   **** * reserves the right to make changes to the Software without notice. Cypress 
  32:speedloop.c   **** * does not assume any liability arising out of the application or use of the 
  33:speedloop.c   **** * Software or any product or circuit described in the Software. Cypress does 
  34:speedloop.c   **** * not authorize its products for use in any products where a malfunction or 
  35:speedloop.c   **** * failure of the Cypress product may reasonably be expected to result in 
  36:speedloop.c   **** * significant property damage, injury or death (“High Risk Product”). By 
  37:speedloop.c   **** * including Cypress’s product in a High Risk Product, the manufacturer of such 
  38:speedloop.c   **** * system or application assumes all risk of such use and in doing so agrees to 
  39:speedloop.c   **** * indemnify Cypress against all liability.
  40:speedloop.c   **** *******************************************************************************/
  41:speedloop.c   **** #include <project.h>
  42:speedloop.c   **** #include "speed.h"
  43:speedloop.c   **** #include "motor.h"
  44:speedloop.c   **** 
  45:speedloop.c   **** #define SAFE_SHIFT(piout) (((piout) < 0) ? 0 : (((piout) + (1 << 15)) >> 16)) 
  46:speedloop.c   **** 
  47:speedloop.c   **** int32 piOut = INIT_PIOUT;       /* 60*(1<<16)PI loop output value */
  48:speedloop.c   **** 
  49:speedloop.c   **** int16 speedErr;
  50:speedloop.c   **** int16 speedErrPrev = 0x00;
  51:speedloop.c   **** int16 speedErr2;
  52:speedloop.c   **** int32 result;
  53:speedloop.c   **** uint16 kp,ki;
  54:speedloop.c   **** 
  55:speedloop.c   **** /*******************************************************************************
  56:speedloop.c   **** * Function Name: SpeedPID
  57:speedloop.c   **** ********************************************************************************
  58:speedloop.c   **** * Summary:
  59:speedloop.c   **** * The SpeedPID function implements PID regulator for motor speed closed loop control.. 
  60:speedloop.c   **** *
  61:speedloop.c   **** * Parameters: None
  62:speedloop.c   **** *    
  63:speedloop.c   **** * Return: None
  64:speedloop.c   **** *
  65:speedloop.c   **** *******************************************************************************/
  66:speedloop.c   **** void SpeedPID(void)
  67:speedloop.c   **** {
  47              		.loc 1 67 0
ARM GAS  C:\Users\IlyR\AppData\Local\Temp\cc4C3nLa.s 			page 3


  48              		.cfi_startproc
  49              		@ args = 0, pretend = 0, frame = 0
  50              		@ frame_needed = 1, uses_anonymous_args = 0
  51 0000 80B5     		push	{r7, lr}
  52              		.cfi_def_cfa_offset 8
  53              		.cfi_offset 7, -8
  54              		.cfi_offset 14, -4
  55 0002 00AF     		add	r7, sp, #0
  56              		.cfi_def_cfa_register 7
  68:speedloop.c   ****   
  69:speedloop.c   **** //    if(speedRef > MIDDLE_SPEED_CMD) 		/* Low Speed, Low Coefficient  */
  70:speedloop.c   **** //    {
  71:speedloop.c   **** //        kp = UI_Data.kp;
  72:speedloop.c   **** //        ki = UI_Data.ki;
  73:speedloop.c   **** //    }
  74:speedloop.c   **** //    else									/* High Speed, High Coefficient  */
  75:speedloop.c   **** //    {
  76:speedloop.c   **** //        kp = UI_Data.kp << 1;
  77:speedloop.c   **** //        ki = UI_Data.ki << 1;
  78:speedloop.c   **** //    }
  79:speedloop.c   ****     
  80:speedloop.c   ****     kp = UI_Data.kp;
  57              		.loc 1 80 0
  58 0004 344B     		ldr	r3, .L4
  59 0006 9A89     		ldrh	r2, [r3, #12]
  60 0008 344B     		ldr	r3, .L4+4
  61 000a 1A80     		strh	r2, [r3]
  81:speedloop.c   ****     ki = UI_Data.ki;
  62              		.loc 1 81 0
  63 000c 324B     		ldr	r3, .L4
  64 000e DA89     		ldrh	r2, [r3, #14]
  65 0010 334B     		ldr	r3, .L4+8
  66 0012 1A80     		strh	r2, [r3]
  82:speedloop.c   ****    
  83:speedloop.c   ****     speedErr = speedCur - speedRef; 
  67              		.loc 1 83 0
  68 0014 334B     		ldr	r3, .L4+12
  69 0016 1A88     		ldrh	r2, [r3]
  70 0018 334B     		ldr	r3, .L4+16
  71 001a 1B88     		ldrh	r3, [r3]
  72 001c D31A     		subs	r3, r2, r3
  73 001e 9BB2     		uxth	r3, r3
  74 0020 1AB2     		sxth	r2, r3
  75 0022 324B     		ldr	r3, .L4+20
  76 0024 1A80     		strh	r2, [r3]
  84:speedloop.c   ****     
  85:speedloop.c   ****     /* Calculate output of integration */	
  86:speedloop.c   ****     result = (int32)(speedErr * ki);		
  77              		.loc 1 86 0
  78 0026 314B     		ldr	r3, .L4+20
  79 0028 0022     		movs	r2, #0
  80 002a 9B5E     		ldrsh	r3, [r3, r2]
  81 002c 1A00     		movs	r2, r3
  82 002e 2C4B     		ldr	r3, .L4+8
  83 0030 1B88     		ldrh	r3, [r3]
  84 0032 5A43     		muls	r2, r3
  85 0034 2E4B     		ldr	r3, .L4+24
ARM GAS  C:\Users\IlyR\AppData\Local\Temp\cc4C3nLa.s 			page 4


  86 0036 1A60     		str	r2, [r3]
  87:speedloop.c   **** 	piOut += result;
  87              		.loc 1 87 0
  88 0038 2E4B     		ldr	r3, .L4+28
  89 003a 1A68     		ldr	r2, [r3]
  90 003c 2C4B     		ldr	r3, .L4+24
  91 003e 1B68     		ldr	r3, [r3]
  92 0040 D218     		adds	r2, r2, r3
  93 0042 2C4B     		ldr	r3, .L4+28
  94 0044 1A60     		str	r2, [r3]
  88:speedloop.c   **** 	
  89:speedloop.c   ****     /* Calculate output of proportional */		
  90:speedloop.c   **** 	speedErr2 = (speedErr-speedErrPrev);			
  95              		.loc 1 90 0
  96 0046 294B     		ldr	r3, .L4+20
  97 0048 0022     		movs	r2, #0
  98 004a 9B5E     		ldrsh	r3, [r3, r2]
  99 004c 9AB2     		uxth	r2, r3
 100 004e 2A4B     		ldr	r3, .L4+32
 101 0050 0021     		movs	r1, #0
 102 0052 5B5E     		ldrsh	r3, [r3, r1]
 103 0054 9BB2     		uxth	r3, r3
 104 0056 D31A     		subs	r3, r2, r3
 105 0058 9BB2     		uxth	r3, r3
 106 005a 1AB2     		sxth	r2, r3
 107 005c 274B     		ldr	r3, .L4+36
 108 005e 1A80     		strh	r2, [r3]
  91:speedloop.c   **** 	speedErrPrev = speedErr;
 109              		.loc 1 91 0
 110 0060 224B     		ldr	r3, .L4+20
 111 0062 0022     		movs	r2, #0
 112 0064 9A5E     		ldrsh	r2, [r3, r2]
 113 0066 244B     		ldr	r3, .L4+32
 114 0068 1A80     		strh	r2, [r3]
  92:speedloop.c   **** 	
  93:speedloop.c   **** 	result = (int32)(speedErr2 * kp);
 115              		.loc 1 93 0
 116 006a 244B     		ldr	r3, .L4+36
 117 006c 0022     		movs	r2, #0
 118 006e 9B5E     		ldrsh	r3, [r3, r2]
 119 0070 1A00     		movs	r2, r3
 120 0072 1A4B     		ldr	r3, .L4+4
 121 0074 1B88     		ldrh	r3, [r3]
 122 0076 5A43     		muls	r2, r3
 123 0078 1D4B     		ldr	r3, .L4+24
 124 007a 1A60     		str	r2, [r3]
  94:speedloop.c   **** 	piOut += result;
 125              		.loc 1 94 0
 126 007c 1D4B     		ldr	r3, .L4+28
 127 007e 1A68     		ldr	r2, [r3]
 128 0080 1B4B     		ldr	r3, .L4+24
 129 0082 1B68     		ldr	r3, [r3]
 130 0084 D218     		adds	r2, r2, r3
 131 0086 1B4B     		ldr	r3, .L4+28
 132 0088 1A60     		str	r2, [r3]
  95:speedloop.c   **** 	
  96:speedloop.c   **** 
ARM GAS  C:\Users\IlyR\AppData\Local\Temp\cc4C3nLa.s 			page 5


  97:speedloop.c   **** 	if(piOut>PIOUT_MAX)
 133              		.loc 1 97 0
 134 008a 1A4B     		ldr	r3, .L4+28
 135 008c 1A68     		ldr	r2, [r3]
 136 008e AA23     		movs	r3, #170
 137 0090 1B04     		lsls	r3, r3, #16
 138 0092 9A42     		cmp	r2, r3
 139 0094 03DD     		ble	.L2
  98:speedloop.c   **** 		piOut= PIOUT_MAX;
 140              		.loc 1 98 0
 141 0096 174B     		ldr	r3, .L4+28
 142 0098 AA22     		movs	r2, #170
 143 009a 1204     		lsls	r2, r2, #16
 144 009c 1A60     		str	r2, [r3]
 145              	.L2:
  99:speedloop.c   ****     if(piOut<PIOUT_MIN)
 146              		.loc 1 99 0
 147 009e 154B     		ldr	r3, .L4+28
 148 00a0 1B68     		ldr	r3, [r3]
 149 00a2 174A     		ldr	r2, .L4+40
 150 00a4 9342     		cmp	r3, r2
 151 00a6 03DC     		bgt	.L3
 100:speedloop.c   **** 		piOut= PIOUT_MIN;
 152              		.loc 1 100 0
 153 00a8 124B     		ldr	r3, .L4+28
 154 00aa 8022     		movs	r2, #128
 155 00ac 5203     		lsls	r2, r2, #13
 156 00ae 1A60     		str	r2, [r3]
 157              	.L3:
 101:speedloop.c   **** //    if (UI_Data.speedRpm > 10) {
 102:speedloop.c   **** //        if(piOut<PIOUT_MIN)
 103:speedloop.c   **** //    		piOut= PIOUT_MIN;
 104:speedloop.c   **** //    } else {
 105:speedloop.c   **** //        if(piOut<0x10000)
 106:speedloop.c   **** //    		piOut= 0x10000;
 107:speedloop.c   **** //    }
 108:speedloop.c   ****     
 109:speedloop.c   **** 	dutyCycle = piOut>>16; 
 158              		.loc 1 109 0
 159 00b0 104B     		ldr	r3, .L4+28
 160 00b2 1B68     		ldr	r3, [r3]
 161 00b4 1B14     		asrs	r3, r3, #16
 162 00b6 DAB2     		uxtb	r2, r3
 163 00b8 124B     		ldr	r3, .L4+44
 164 00ba 1A70     		strb	r2, [r3]
 110:speedloop.c   **** 
 111:speedloop.c   ****     UI_Data.test2 = dutyCycle;
 165              		.loc 1 111 0
 166 00bc 114B     		ldr	r3, .L4+44
 167 00be 1B78     		ldrb	r3, [r3]
 168 00c0 1AB2     		sxth	r2, r3
 169 00c2 054B     		ldr	r3, .L4
 170 00c4 5A80     		strh	r2, [r3, #2]
 112:speedloop.c   ****     
 113:speedloop.c   **** 	PWM_Drive_WriteCompare(dutyCycle);
 171              		.loc 1 113 0
 172 00c6 0F4B     		ldr	r3, .L4+44
ARM GAS  C:\Users\IlyR\AppData\Local\Temp\cc4C3nLa.s 			page 6


 173 00c8 1B78     		ldrb	r3, [r3]
 174 00ca 1800     		movs	r0, r3
 175 00cc FFF7FEFF 		bl	PWM_Drive_WriteCompare
 114:speedloop.c   **** }
 176              		.loc 1 114 0
 177 00d0 C046     		nop
 178 00d2 BD46     		mov	sp, r7
 179              		@ sp needed
 180 00d4 80BD     		pop	{r7, pc}
 181              	.L5:
 182 00d6 C046     		.align	2
 183              	.L4:
 184 00d8 00000000 		.word	UI_Data
 185 00dc 00000000 		.word	kp
 186 00e0 00000000 		.word	ki
 187 00e4 00000000 		.word	speedCur
 188 00e8 00000000 		.word	speedRef
 189 00ec 00000000 		.word	speedErr
 190 00f0 00000000 		.word	result
 191 00f4 00000000 		.word	piOut
 192 00f8 00000000 		.word	speedErrPrev
 193 00fc 00000000 		.word	speedErr2
 194 0100 FFFF0F00 		.word	1048575
 195 0104 00000000 		.word	dutyCycle
 196              		.cfi_endproc
 197              	.LFE32:
 198              		.size	SpeedPID, .-SpeedPID
 199              		.section	.text.resetPIOut,"ax",%progbits
 200              		.align	2
 201              		.global	resetPIOut
 202              		.code	16
 203              		.thumb_func
 204              		.type	resetPIOut, %function
 205              	resetPIOut:
 206              	.LFB33:
 115:speedloop.c   **** 
 116:speedloop.c   **** /*******************************************************************************
 117:speedloop.c   **** * Function Name: resetPIOut
 118:speedloop.c   **** ********************************************************************************
 119:speedloop.c   **** * Summary:
 120:speedloop.c   **** * reset SpeedPID 
 121:speedloop.c   **** *
 122:speedloop.c   **** * Parameters: None
 123:speedloop.c   **** *    
 124:speedloop.c   **** * Return: None
 125:speedloop.c   **** *
 126:speedloop.c   **** *******************************************************************************/
 127:speedloop.c   **** void resetPIOut(void)
 128:speedloop.c   **** {
 207              		.loc 1 128 0
 208              		.cfi_startproc
 209              		@ args = 0, pretend = 0, frame = 0
 210              		@ frame_needed = 1, uses_anonymous_args = 0
 211 0000 80B5     		push	{r7, lr}
 212              		.cfi_def_cfa_offset 8
 213              		.cfi_offset 7, -8
 214              		.cfi_offset 14, -4
ARM GAS  C:\Users\IlyR\AppData\Local\Temp\cc4C3nLa.s 			page 7


 215 0002 00AF     		add	r7, sp, #0
 216              		.cfi_def_cfa_register 7
 129:speedloop.c   ****     piOut = INIT_PIOUT;
 217              		.loc 1 129 0
 218 0004 074B     		ldr	r3, .L7
 219 0006 A022     		movs	r2, #160
 220 0008 D202     		lsls	r2, r2, #11
 221 000a 1A60     		str	r2, [r3]
 130:speedloop.c   ****     speedErr = 0;
 222              		.loc 1 130 0
 223 000c 064B     		ldr	r3, .L7+4
 224 000e 0022     		movs	r2, #0
 225 0010 1A80     		strh	r2, [r3]
 131:speedloop.c   ****     speedErrPrev = speedErr;
 226              		.loc 1 131 0
 227 0012 054B     		ldr	r3, .L7+4
 228 0014 0022     		movs	r2, #0
 229 0016 9A5E     		ldrsh	r2, [r3, r2]
 230 0018 044B     		ldr	r3, .L7+8
 231 001a 1A80     		strh	r2, [r3]
 132:speedloop.c   **** }
 232              		.loc 1 132 0
 233 001c C046     		nop
 234 001e BD46     		mov	sp, r7
 235              		@ sp needed
 236 0020 80BD     		pop	{r7, pc}
 237              	.L8:
 238 0022 C046     		.align	2
 239              	.L7:
 240 0024 00000000 		.word	piOut
 241 0028 00000000 		.word	speedErr
 242 002c 00000000 		.word	speedErrPrev
 243              		.cfi_endproc
 244              	.LFE33:
 245              		.size	resetPIOut, .-resetPIOut
 246              		.text
 247              	.Letext0:
 248              		.file 2 "Generated_Source\\PSoC4/cytypes.h"
 249              		.file 3 "motor.h"