ARM GAS  C:\Users\IlyR\AppData\Local\Temp\ccdWaOeT.s 			page 1


   1              		.syntax unified
   2              		.cpu cortex-m0
   3              		.fpu softvfp
   4              		.eabi_attribute 20, 1
   5              		.eabi_attribute 21, 1
   6              		.eabi_attribute 23, 3
   7              		.eabi_attribute 24, 1
   8              		.eabi_attribute 25, 1
   9              		.eabi_attribute 26, 1
  10              		.eabi_attribute 30, 6
  11              		.eabi_attribute 34, 0
  12              		.eabi_attribute 18, 4
  13              		.thumb
  14              		.syntax unified
  15              		.file	"userinterface.c"
  16              		.text
  17              	.Ltext0:
  18              		.cfi_sections	.debug_frame
  19              		.comm	btnStatus,1,4
  20              		.bss
  21              		.align	2
  22              	btnArray:
  23 0000 000000   		.space	3
  24 0003 00       		.align	2
  25              	bcpTxBuffer:
  26 0004 00000000 		.space	32
  26      00000000 
  26      00000000 
  26      00000000 
  26      00000000 
  27              		.section	.text.ButtonInit,"ax",%progbits
  28              		.align	2
  29              		.global	ButtonInit
  30              		.code	16
  31              		.thumb_func
  32              		.type	ButtonInit, %function
  33              	ButtonInit:
  34              	.LFB32:
  35              		.file 1 "userinterface.c"
   1:userinterface.c **** /*******************************************************************************
   2:userinterface.c **** * Project Name		: Sensored BLDC Motor Control
   3:userinterface.c **** * File Name			: userinterface.c
   4:userinterface.c **** * Version			: 1.0
   5:userinterface.c **** * Device Used		: CY8C4245AXI-483     
   6:userinterface.c **** * Software Used		: PSoC Creator 4.2
   7:userinterface.c **** * Compiler Used		: ARM GCC 5.4.1 
   8:userinterface.c **** * Related Hardware  : CY8CKIT-042 PSoC 4 Pioneer Kit + CY8CKIT-037 PSoC 4
   9:userinterface.c **** *                     Motor Control Evaluation Kit
  10:userinterface.c **** ******************************************************************************
  11:userinterface.c **** * Copyright (2018), Cypress Semiconductor Corporation. All rights reserved.
  12:userinterface.c **** *******************************************************************************
  13:userinterface.c **** * This software, including source code, documentation and related materials
  14:userinterface.c **** * (“Software”), is owned by Cypress Semiconductor Corporation or one of its
  15:userinterface.c **** * subsidiaries (“Cypress”) and is protected by and subject to worldwide patent
  16:userinterface.c **** * protection (United States and foreign), United States copyright laws and
  17:userinterface.c **** * international treaty provisions. Therefore, you may use this Software only
  18:userinterface.c **** * as provided in the license agreement accompanying the software package from
ARM GAS  C:\Users\IlyR\AppData\Local\Temp\ccdWaOeT.s 			page 2


  19:userinterface.c **** * which you obtained this Software (“EULA”).
  20:userinterface.c **** *
  21:userinterface.c **** * If no EULA applies, Cypress hereby grants you a personal, nonexclusive,
  22:userinterface.c **** * non-transferable license to copy, modify, and compile the Software source
  23:userinterface.c **** * code solely for use in connection with Cypress’s integrated circuit products.
  24:userinterface.c **** * Any reproduction, modification, translation, compilation, or representation
  25:userinterface.c **** * of this Software except as specified above is prohibited without the express
  26:userinterface.c **** * written permission of Cypress.
  27:userinterface.c **** *
  28:userinterface.c **** * Disclaimer: THIS SOFTWARE IS PROVIDED AS-IS, WITH NO WARRANTY OF ANY KIND, 
  29:userinterface.c **** * EXPRESS OR IMPLIED, INCLUDING, BUT NOT LIMITED TO, NONINFRINGEMENT, IMPLIED 
  30:userinterface.c **** * WARRANTIES OF MERCHANTABILITY AND FITNESS FOR A PARTICULAR PURPOSE. Cypress 
  31:userinterface.c **** * reserves the right to make changes to the Software without notice. Cypress 
  32:userinterface.c **** * does not assume any liability arising out of the application or use of the 
  33:userinterface.c **** * Software or any product or circuit described in the Software. Cypress does 
  34:userinterface.c **** * not authorize its products for use in any products where a malfunction or 
  35:userinterface.c **** * failure of the Cypress product may reasonably be expected to result in 
  36:userinterface.c **** * significant property damage, injury or death (“High Risk Product”). By 
  37:userinterface.c **** * including Cypress’s product in a High Risk Product, the manufacturer of such 
  38:userinterface.c **** * system or application assumes all risk of such use and in doing so agrees to 
  39:userinterface.c **** * indemnify Cypress against all liability.
  40:userinterface.c **** *******************************************************************************/
  41:userinterface.c **** #include <project.h>
  42:userinterface.c **** #include "motor.h"
  43:userinterface.c **** #include "getvalue.h"
  44:userinterface.c **** #include "userinterface.h"
  45:userinterface.c **** 
  46:userinterface.c **** 
  47:userinterface.c **** /******************************************************************************
  48:userinterface.c ****  * Global variables definition
  49:userinterface.c ****  * ----------------------------------------------------------------------------
  50:userinterface.c ****  * These variables should be populated to other modules. Header file contains 
  51:userinterface.c ****  * the extern statement for these variables.
  52:userinterface.c ****  ******************************************************************************/ 
  53:userinterface.c **** 
  54:userinterface.c **** /* press status for button SW2, default is BUTTON_OFF */
  55:userinterface.c **** uint8 btnStatus[BTN_COUNT];
  56:userinterface.c **** 
  57:userinterface.c **** /******************************************************************************
  58:userinterface.c ****  * Local Macro definition
  59:userinterface.c ****  * ----------------------------------------------------------------------------
  60:userinterface.c ****  * These Macros are only used in this module. These Macros should not be 
  61:userinterface.c ****  * populated to other modules.
  62:userinterface.c ****  ******************************************************************************/
  63:userinterface.c **** #define BTN_LOW_LEVEL                       (uint8)(0x00)
  64:userinterface.c **** #define BTN_HIHG_LEVEL                      (uint8)(0x01)
  65:userinterface.c **** 
  66:userinterface.c **** /* this macro defines the initial level when starting to detect button pressing */
  67:userinterface.c **** #define BTN_OFF_LEVEL                       BTN_HIHG_LEVEL
  68:userinterface.c **** /* this macro defines the desired level when button is pressed */
  69:userinterface.c **** #define BTN_ON_LEVEL                        BTN_LOW_LEVEL
  70:userinterface.c **** 
  71:userinterface.c **** /* debounce count for button glitch filter */
  72:userinterface.c **** #define BTN_GLITCH_FILTER_ACTIVE_CNT        (uint8)(15)
  73:userinterface.c **** #define BTN_GLITCH_FILTER_DISCARD_CNT       (uint8)(5)
  74:userinterface.c **** #define BTN_GLITCH_FILTER_INIT_CNT          (uint8)(10)
  75:userinterface.c **** 
ARM GAS  C:\Users\IlyR\AppData\Local\Temp\ccdWaOeT.s 			page 3


  76:userinterface.c **** /******************************************************************************
  77:userinterface.c ****  * Local variables definition
  78:userinterface.c ****  * ----------------------------------------------------------------------------
  79:userinterface.c ****  * These variables are only used in this module. These variables should not be 
  80:userinterface.c ****  * populated to other modules.
  81:userinterface.c ****  ******************************************************************************/
  82:userinterface.c **** typedef struct _Btn_Status_T
  83:userinterface.c **** {
  84:userinterface.c ****     uint8   preBtnStatus;                   /* variable to store last status of button level  */
  85:userinterface.c ****     uint8   glitchFilter;                   /* glitch filter counter for button pressing */
  86:userinterface.c ****     uint8   btnIsDetectFlag;                 /* flag to store button pressing event */ 
  87:userinterface.c **** }Btn_Status_T;
  88:userinterface.c **** 
  89:userinterface.c **** static Btn_Status_T btnArray[BTN_COUNT];
  90:userinterface.c **** 
  91:userinterface.c **** static uint8 bcpTxBuffer[32];
  92:userinterface.c **** 
  93:userinterface.c **** /*******************************************************************************
  94:userinterface.c **** * Function Name: Button_Init
  95:userinterface.c **** ********************************************************************************
  96:userinterface.c **** * Summary:
  97:userinterface.c **** *   Initialize button status structure to detect pressing event
  98:userinterface.c **** *
  99:userinterface.c **** * Parameters:  
 100:userinterface.c **** *   void
 101:userinterface.c **** *
 102:userinterface.c **** * Return: 
 103:userinterface.c **** *   void
 104:userinterface.c **** *
 105:userinterface.c **** *******************************************************************************/
 106:userinterface.c **** void ButtonInit(void)
 107:userinterface.c **** {
  36              		.loc 1 107 0
  37              		.cfi_startproc
  38              		@ args = 0, pretend = 0, frame = 8
  39              		@ frame_needed = 1, uses_anonymous_args = 0
  40 0000 80B5     		push	{r7, lr}
  41              		.cfi_def_cfa_offset 8
  42              		.cfi_offset 7, -8
  43              		.cfi_offset 14, -4
  44 0002 82B0     		sub	sp, sp, #8
  45              		.cfi_def_cfa_offset 16
  46 0004 00AF     		add	r7, sp, #0
  47              		.cfi_def_cfa_register 7
 108:userinterface.c ****     uint8 i = 0;
  48              		.loc 1 108 0
  49 0006 FB1D     		adds	r3, r7, #7
  50 0008 0022     		movs	r2, #0
  51 000a 1A70     		strb	r2, [r3]
 109:userinterface.c ****     
 110:userinterface.c ****     for(i = 0; i < BTN_COUNT; i++)
  52              		.loc 1 110 0
  53 000c FB1D     		adds	r3, r7, #7
  54 000e 0022     		movs	r2, #0
  55 0010 1A70     		strb	r2, [r3]
  56 0012 20E0     		b	.L2
  57              	.L3:
ARM GAS  C:\Users\IlyR\AppData\Local\Temp\ccdWaOeT.s 			page 4


 111:userinterface.c ****     {
 112:userinterface.c ****         btnArray[i].preBtnStatus = BTN_OFF_LEVEL;
  58              		.loc 1 112 0 discriminator 3
  59 0014 FB1D     		adds	r3, r7, #7
  60 0016 1A78     		ldrb	r2, [r3]
  61 0018 1349     		ldr	r1, .L4
  62 001a 1300     		movs	r3, r2
  63 001c 5B00     		lsls	r3, r3, #1
  64 001e 9B18     		adds	r3, r3, r2
  65 0020 0122     		movs	r2, #1
  66 0022 5A54     		strb	r2, [r3, r1]
 113:userinterface.c ****         btnArray[i].glitchFilter = BTN_GLITCH_FILTER_INIT_CNT;
  67              		.loc 1 113 0 discriminator 3
  68 0024 FB1D     		adds	r3, r7, #7
  69 0026 1A78     		ldrb	r2, [r3]
  70 0028 0F49     		ldr	r1, .L4
  71 002a 1300     		movs	r3, r2
  72 002c 5B00     		lsls	r3, r3, #1
  73 002e 9B18     		adds	r3, r3, r2
  74 0030 CB18     		adds	r3, r1, r3
  75 0032 0133     		adds	r3, r3, #1
  76 0034 0A22     		movs	r2, #10
  77 0036 1A70     		strb	r2, [r3]
 114:userinterface.c ****         btnArray[i].btnIsDetectFlag = FALSE;
  78              		.loc 1 114 0 discriminator 3
  79 0038 FB1D     		adds	r3, r7, #7
  80 003a 1A78     		ldrb	r2, [r3]
  81 003c 0A49     		ldr	r1, .L4
  82 003e 1300     		movs	r3, r2
  83 0040 5B00     		lsls	r3, r3, #1
  84 0042 9B18     		adds	r3, r3, r2
  85 0044 CB18     		adds	r3, r1, r3
  86 0046 0233     		adds	r3, r3, #2
  87 0048 0022     		movs	r2, #0
  88 004a 1A70     		strb	r2, [r3]
 110:userinterface.c ****     {
  89              		.loc 1 110 0 discriminator 3
  90 004c FB1D     		adds	r3, r7, #7
  91 004e 1A78     		ldrb	r2, [r3]
  92 0050 FB1D     		adds	r3, r7, #7
  93 0052 0132     		adds	r2, r2, #1
  94 0054 1A70     		strb	r2, [r3]
  95              	.L2:
 110:userinterface.c ****     {
  96              		.loc 1 110 0 is_stmt 0 discriminator 1
  97 0056 FB1D     		adds	r3, r7, #7
  98 0058 1B78     		ldrb	r3, [r3]
  99 005a 002B     		cmp	r3, #0
 100 005c DAD0     		beq	.L3
 115:userinterface.c ****     }
 116:userinterface.c **** }
 101              		.loc 1 116 0 is_stmt 1
 102 005e C046     		nop
 103 0060 BD46     		mov	sp, r7
 104 0062 02B0     		add	sp, sp, #8
 105              		@ sp needed
 106 0064 80BD     		pop	{r7, pc}
ARM GAS  C:\Users\IlyR\AppData\Local\Temp\ccdWaOeT.s 			page 5


 107              	.L5:
 108 0066 C046     		.align	2
 109              	.L4:
 110 0068 00000000 		.word	btnArray
 111              		.cfi_endproc
 112              	.LFE32:
 113              		.size	ButtonInit, .-ButtonInit
 114              		.section	.text.ButtonPressDetect,"ax",%progbits
 115              		.align	2
 116              		.global	ButtonPressDetect
 117              		.code	16
 118              		.thumb_func
 119              		.type	ButtonPressDetect, %function
 120              	ButtonPressDetect:
 121              	.LFB33:
 117:userinterface.c **** 
 118:userinterface.c **** /*******************************************************************************
 119:userinterface.c **** * Function Name: ButtonPressDetect
 120:userinterface.c **** ********************************************************************************
 121:userinterface.c **** * Summary:
 122:userinterface.c **** *   Detect button status for pressing event
 123:userinterface.c **** *
 124:userinterface.c **** * Parameters:  
 125:userinterface.c **** *   void
 126:userinterface.c **** *
 127:userinterface.c **** * Return: 
 128:userinterface.c **** *   void
 129:userinterface.c **** *
 130:userinterface.c **** *******************************************************************************/
 131:userinterface.c **** void ButtonPressDetect(uint8 btnStatus, Btn_Status_T* btnArrayPtr, uint8* btnStatusPtr)
 132:userinterface.c **** {
 122              		.loc 1 132 0
 123              		.cfi_startproc
 124              		@ args = 0, pretend = 0, frame = 24
 125              		@ frame_needed = 1, uses_anonymous_args = 0
 126 0000 80B5     		push	{r7, lr}
 127              		.cfi_def_cfa_offset 8
 128              		.cfi_offset 7, -8
 129              		.cfi_offset 14, -4
 130 0002 86B0     		sub	sp, sp, #24
 131              		.cfi_def_cfa_offset 32
 132 0004 00AF     		add	r7, sp, #0
 133              		.cfi_def_cfa_register 7
 134 0006 B960     		str	r1, [r7, #8]
 135 0008 7A60     		str	r2, [r7, #4]
 136 000a 0F23     		movs	r3, #15
 137 000c FB18     		adds	r3, r7, r3
 138 000e 021C     		adds	r2, r0, #0
 139 0010 1A70     		strb	r2, [r3]
 133:userinterface.c ****     uint8 curBtnStatus = btnStatus;    /* get current button level status */
 140              		.loc 1 133 0
 141 0012 1723     		movs	r3, #23
 142 0014 FB18     		adds	r3, r7, r3
 143 0016 0F22     		movs	r2, #15
 144 0018 BA18     		adds	r2, r7, r2
 145 001a 1278     		ldrb	r2, [r2]
 146 001c 1A70     		strb	r2, [r3]
ARM GAS  C:\Users\IlyR\AppData\Local\Temp\ccdWaOeT.s 			page 6


 134:userinterface.c ****     if(btnArrayPtr->btnIsDetectFlag == FALSE)          
 147              		.loc 1 134 0
 148 001e BB68     		ldr	r3, [r7, #8]
 149 0020 9B78     		ldrb	r3, [r3, #2]
 150 0022 002B     		cmp	r3, #0
 151 0024 12D1     		bne	.L7
 135:userinterface.c ****     {
 136:userinterface.c ****         /* detect button pressing event */
 137:userinterface.c ****         btnArrayPtr->btnIsDetectFlag = ((curBtnStatus == BTN_ON_LEVEL) && 
 138:userinterface.c ****                                        (curBtnStatus ^ btnArrayPtr->preBtnStatus)) ? TRUE : FALSE;
 152              		.loc 1 138 0
 153 0026 1723     		movs	r3, #23
 154 0028 FB18     		adds	r3, r7, r3
 155 002a 1B78     		ldrb	r3, [r3]
 156 002c 002B     		cmp	r3, #0
 157 002e 08D1     		bne	.L8
 158              		.loc 1 138 0 is_stmt 0 discriminator 1
 159 0030 BB68     		ldr	r3, [r7, #8]
 160 0032 1B78     		ldrb	r3, [r3]
 161 0034 1722     		movs	r2, #23
 162 0036 BA18     		adds	r2, r7, r2
 163 0038 1278     		ldrb	r2, [r2]
 164 003a 9A42     		cmp	r2, r3
 165 003c 01D0     		beq	.L8
 166              		.loc 1 138 0 discriminator 3
 167 003e 0123     		movs	r3, #1
 168 0040 00E0     		b	.L9
 169              	.L8:
 170              		.loc 1 138 0 discriminator 4
 171 0042 0023     		movs	r3, #0
 172              	.L9:
 137:userinterface.c ****                                        (curBtnStatus ^ btnArrayPtr->preBtnStatus)) ? TRUE : FALSE;
 173              		.loc 1 137 0 is_stmt 1
 174 0044 DAB2     		uxtb	r2, r3
 175 0046 BB68     		ldr	r3, [r7, #8]
 176 0048 9A70     		strb	r2, [r3, #2]
 177 004a 2EE0     		b	.L10
 178              	.L7:
 139:userinterface.c ****     }
 140:userinterface.c ****     else
 141:userinterface.c ****     {
 142:userinterface.c ****         if(curBtnStatus == BTN_ON_LEVEL)   /* button keeps in desired level status */
 179              		.loc 1 142 0
 180 004c 1723     		movs	r3, #23
 181 004e FB18     		adds	r3, r7, r3
 182 0050 1B78     		ldrb	r3, [r3]
 183 0052 002B     		cmp	r3, #0
 184 0054 18D1     		bne	.L11
 143:userinterface.c ****         {            
 144:userinterface.c ****             /*  detect if glitch filter counter value is larger than pre-defined threshold */
 145:userinterface.c ****             if(btnArrayPtr->glitchFilter > BTN_GLITCH_FILTER_ACTIVE_CNT)
 185              		.loc 1 145 0
 186 0056 BB68     		ldr	r3, [r7, #8]
 187 0058 5B78     		ldrb	r3, [r3, #1]
 188 005a 0F2B     		cmp	r3, #15
 189 005c 0DD9     		bls	.L12
 146:userinterface.c ****             {
ARM GAS  C:\Users\IlyR\AppData\Local\Temp\ccdWaOeT.s 			page 7


 147:userinterface.c ****                 /* succeed in button pressing detection, invert button ON/OFF status */
 148:userinterface.c ****                 *btnStatusPtr = *btnStatusPtr ^ BUTTON_ON;
 190              		.loc 1 148 0
 191 005e 7B68     		ldr	r3, [r7, #4]
 192 0060 1B78     		ldrb	r3, [r3]
 193 0062 0122     		movs	r2, #1
 194 0064 5340     		eors	r3, r2
 195 0066 DAB2     		uxtb	r2, r3
 196 0068 7B68     		ldr	r3, [r7, #4]
 197 006a 1A70     		strb	r2, [r3]
 149:userinterface.c ****                 /* reset glitch filter counter */
 150:userinterface.c ****                 btnArrayPtr->glitchFilter = BTN_GLITCH_FILTER_INIT_CNT;
 198              		.loc 1 150 0
 199 006c BB68     		ldr	r3, [r7, #8]
 200 006e 0A22     		movs	r2, #10
 201 0070 5A70     		strb	r2, [r3, #1]
 151:userinterface.c ****                 /* clear detection flag */
 152:userinterface.c ****                 btnArrayPtr->btnIsDetectFlag = FALSE;
 202              		.loc 1 152 0
 203 0072 BB68     		ldr	r3, [r7, #8]
 204 0074 0022     		movs	r2, #0
 205 0076 9A70     		strb	r2, [r3, #2]
 206 0078 17E0     		b	.L10
 207              	.L12:
 153:userinterface.c ****             }
 154:userinterface.c ****             else
 155:userinterface.c ****             {
 156:userinterface.c ****                 /* increase glitch filter counter */
 157:userinterface.c ****                 btnArrayPtr->glitchFilter++; 
 208              		.loc 1 157 0
 209 007a BB68     		ldr	r3, [r7, #8]
 210 007c 5B78     		ldrb	r3, [r3, #1]
 211 007e 0133     		adds	r3, r3, #1
 212 0080 DAB2     		uxtb	r2, r3
 213 0082 BB68     		ldr	r3, [r7, #8]
 214 0084 5A70     		strb	r2, [r3, #1]
 215 0086 10E0     		b	.L10
 216              	.L11:
 158:userinterface.c ****             }
 159:userinterface.c ****         }
 160:userinterface.c ****         else
 161:userinterface.c ****         {
 162:userinterface.c ****             if(btnArrayPtr->glitchFilter < BTN_GLITCH_FILTER_DISCARD_CNT)
 217              		.loc 1 162 0
 218 0088 BB68     		ldr	r3, [r7, #8]
 219 008a 5B78     		ldrb	r3, [r3, #1]
 220 008c 042B     		cmp	r3, #4
 221 008e 06D8     		bhi	.L14
 163:userinterface.c ****             {
 164:userinterface.c ****                 /* keep buttons status unchanged, reset glitch filter counter */
 165:userinterface.c ****                 btnArrayPtr->glitchFilter = BTN_GLITCH_FILTER_INIT_CNT;
 222              		.loc 1 165 0
 223 0090 BB68     		ldr	r3, [r7, #8]
 224 0092 0A22     		movs	r2, #10
 225 0094 5A70     		strb	r2, [r3, #1]
 166:userinterface.c ****                 /* clear detection flag */
 167:userinterface.c ****                 btnArrayPtr->btnIsDetectFlag = FALSE;
ARM GAS  C:\Users\IlyR\AppData\Local\Temp\ccdWaOeT.s 			page 8


 226              		.loc 1 167 0
 227 0096 BB68     		ldr	r3, [r7, #8]
 228 0098 0022     		movs	r2, #0
 229 009a 9A70     		strb	r2, [r3, #2]
 230 009c 05E0     		b	.L10
 231              	.L14:
 168:userinterface.c ****             }
 169:userinterface.c ****             else
 170:userinterface.c ****             {
 171:userinterface.c ****                  /* decrease glitch filter counter */
 172:userinterface.c ****                 btnArrayPtr->glitchFilter--; 
 232              		.loc 1 172 0
 233 009e BB68     		ldr	r3, [r7, #8]
 234 00a0 5B78     		ldrb	r3, [r3, #1]
 235 00a2 013B     		subs	r3, r3, #1
 236 00a4 DAB2     		uxtb	r2, r3
 237 00a6 BB68     		ldr	r3, [r7, #8]
 238 00a8 5A70     		strb	r2, [r3, #1]
 239              	.L10:
 173:userinterface.c ****             }
 174:userinterface.c ****         }
 175:userinterface.c ****     }
 176:userinterface.c ****     /* update last button status with current status */
 177:userinterface.c ****     btnArrayPtr->preBtnStatus = curBtnStatus;
 240              		.loc 1 177 0
 241 00aa BB68     		ldr	r3, [r7, #8]
 242 00ac 1722     		movs	r2, #23
 243 00ae BA18     		adds	r2, r7, r2
 244 00b0 1278     		ldrb	r2, [r2]
 245 00b2 1A70     		strb	r2, [r3]
 178:userinterface.c **** }
 246              		.loc 1 178 0
 247 00b4 C046     		nop
 248 00b6 BD46     		mov	sp, r7
 249 00b8 06B0     		add	sp, sp, #24
 250              		@ sp needed
 251 00ba 80BD     		pop	{r7, pc}
 252              		.cfi_endproc
 253              	.LFE33:
 254              		.size	ButtonPressDetect, .-ButtonPressDetect
 255              		.section	.text.ButtonProcess,"ax",%progbits
 256              		.align	2
 257              		.global	ButtonProcess
 258              		.code	16
 259              		.thumb_func
 260              		.type	ButtonProcess, %function
 261              	ButtonProcess:
 262              	.LFB34:
 179:userinterface.c **** 
 180:userinterface.c **** /*******************************************************************************
 181:userinterface.c **** * Function Name: ButtonProcess
 182:userinterface.c **** ********************************************************************************
 183:userinterface.c **** * Summary:   
 184:userinterface.c **** * This function detects the press action of button.
 185:userinterface.c **** *
 186:userinterface.c **** * Parameters: None 
 187:userinterface.c **** *  
ARM GAS  C:\Users\IlyR\AppData\Local\Temp\ccdWaOeT.s 			page 9


 188:userinterface.c **** * Return: None
 189:userinterface.c **** *
 190:userinterface.c **** *******************************************************************************/
 191:userinterface.c **** void ButtonProcess(void)
 192:userinterface.c **** {
 263              		.loc 1 192 0
 264              		.cfi_startproc
 265              		@ args = 0, pretend = 0, frame = 0
 266              		@ frame_needed = 1, uses_anonymous_args = 0
 267 0000 80B5     		push	{r7, lr}
 268              		.cfi_def_cfa_offset 8
 269              		.cfi_offset 7, -8
 270              		.cfi_offset 14, -4
 271 0002 00AF     		add	r7, sp, #0
 272              		.cfi_def_cfa_register 7
 193:userinterface.c ****     ButtonPressDetect(SW2_Read(), &btnArray[0], &btnStatus[0]);
 273              		.loc 1 193 0
 274 0004 FFF7FEFF 		bl	SW2_Read
 275 0008 0300     		movs	r3, r0
 276 000a 1800     		movs	r0, r3
 277 000c 0C4A     		ldr	r2, .L19
 278 000e 0D4B     		ldr	r3, .L19+4
 279 0010 1900     		movs	r1, r3
 280 0012 FFF7FEFF 		bl	ButtonPressDetect
 194:userinterface.c ****     if(btnStatus[0] == BUTTON_ON)
 281              		.loc 1 194 0
 282 0016 0A4B     		ldr	r3, .L19
 283 0018 1B78     		ldrb	r3, [r3]
 284 001a 012B     		cmp	r3, #1
 285 001c 06D1     		bne	.L16
 195:userinterface.c ****     {
 196:userinterface.c ****         UI_Cmd.run = TRUE;	
 286              		.loc 1 196 0
 287 001e 0A4B     		ldr	r3, .L19+8
 288 0020 0122     		movs	r2, #1
 289 0022 1A70     		strb	r2, [r3]
 197:userinterface.c **** 	    stateSys = STATUS_RUN;
 290              		.loc 1 197 0
 291 0024 094B     		ldr	r3, .L19+12
 292 0026 0122     		movs	r2, #1
 293 0028 1A70     		strb	r2, [r3]
 198:userinterface.c ****     }
 199:userinterface.c ****     else
 200:userinterface.c ****     {
 201:userinterface.c ****         UI_Cmd.run = FALSE; 	
 202:userinterface.c **** 	    stateSys = STATUS_STOP;
 203:userinterface.c ****     }
 204:userinterface.c **** }
 294              		.loc 1 204 0
 295 002a 05E0     		b	.L18
 296              	.L16:
 201:userinterface.c **** 	    stateSys = STATUS_STOP;
 297              		.loc 1 201 0
 298 002c 064B     		ldr	r3, .L19+8
 299 002e 0022     		movs	r2, #0
 300 0030 1A70     		strb	r2, [r3]
 202:userinterface.c ****     }
ARM GAS  C:\Users\IlyR\AppData\Local\Temp\ccdWaOeT.s 			page 10


 301              		.loc 1 202 0
 302 0032 064B     		ldr	r3, .L19+12
 303 0034 0222     		movs	r2, #2
 304 0036 1A70     		strb	r2, [r3]
 305              	.L18:
 306              		.loc 1 204 0
 307 0038 C046     		nop
 308 003a BD46     		mov	sp, r7
 309              		@ sp needed
 310 003c 80BD     		pop	{r7, pc}
 311              	.L20:
 312 003e C046     		.align	2
 313              	.L19:
 314 0040 00000000 		.word	btnStatus
 315 0044 00000000 		.word	btnArray
 316 0048 00000000 		.word	UI_Cmd
 317 004c 00000000 		.word	stateSys
 318              		.cfi_endproc
 319              	.LFE34:
 320              		.size	ButtonProcess, .-ButtonProcess
 321              		.section	.text.UpdateStatusInit,"ax",%progbits
 322              		.align	2
 323              		.global	UpdateStatusInit
 324              		.code	16
 325              		.thumb_func
 326              		.type	UpdateStatusInit, %function
 327              	UpdateStatusInit:
 328              	.LFB35:
 205:userinterface.c **** 
 206:userinterface.c **** /*******************************************************************************
 207:userinterface.c **** * Function Name: UpdateStatusStart
 208:userinterface.c **** ********************************************************************************
 209:userinterface.c **** * Summary:   
 210:userinterface.c **** * This function initialize the motor, and ready to start.
 211:userinterface.c **** *
 212:userinterface.c **** * Parameters: None 
 213:userinterface.c **** *  
 214:userinterface.c **** * Return: None
 215:userinterface.c **** *
 216:userinterface.c **** *******************************************************************************/
 217:userinterface.c **** void UpdateStatusInit(void)
 218:userinterface.c **** {
 329              		.loc 1 218 0
 330              		.cfi_startproc
 331              		@ args = 0, pretend = 0, frame = 0
 332              		@ frame_needed = 1, uses_anonymous_args = 0
 333 0000 80B5     		push	{r7, lr}
 334              		.cfi_def_cfa_offset 8
 335              		.cfi_offset 7, -8
 336              		.cfi_offset 14, -4
 337 0002 00AF     		add	r7, sp, #0
 338              		.cfi_def_cfa_register 7
 219:userinterface.c **** 	UI_Cmd.run = FALSE;
 339              		.loc 1 219 0
 340 0004 044B     		ldr	r3, .L22
 341 0006 0022     		movs	r2, #0
 342 0008 1A70     		strb	r2, [r3]
ARM GAS  C:\Users\IlyR\AppData\Local\Temp\ccdWaOeT.s 			page 11


 220:userinterface.c **** 	stateSys = STATUS_STOP;	
 343              		.loc 1 220 0
 344 000a 044B     		ldr	r3, .L22+4
 345 000c 0222     		movs	r2, #2
 346 000e 1A70     		strb	r2, [r3]
 221:userinterface.c **** }
 347              		.loc 1 221 0
 348 0010 C046     		nop
 349 0012 BD46     		mov	sp, r7
 350              		@ sp needed
 351 0014 80BD     		pop	{r7, pc}
 352              	.L23:
 353 0016 C046     		.align	2
 354              	.L22:
 355 0018 00000000 		.word	UI_Cmd
 356 001c 00000000 		.word	stateSys
 357              		.cfi_endproc
 358              	.LFE35:
 359              		.size	UpdateStatusInit, .-UpdateStatusInit
 360              		.section	.text.UpdateStatusError,"ax",%progbits
 361              		.align	2
 362              		.global	UpdateStatusError
 363              		.code	16
 364              		.thumb_func
 365              		.type	UpdateStatusError, %function
 366              	UpdateStatusError:
 367              	.LFB36:
 222:userinterface.c **** 
 223:userinterface.c **** /*******************************************************************************
 224:userinterface.c **** * Function Name: UpdateStatusError
 225:userinterface.c **** ********************************************************************************
 226:userinterface.c **** * Summary:   
 227:userinterface.c **** * This function stop the motor and update error flag.
 228:userinterface.c **** *
 229:userinterface.c **** * Parameters: None 
 230:userinterface.c **** *  
 231:userinterface.c **** * Return: None
 232:userinterface.c **** *
 233:userinterface.c **** *******************************************************************************/
 234:userinterface.c **** void UpdateStatusError()
 235:userinterface.c **** {	
 368              		.loc 1 235 0
 369              		.cfi_startproc
 370              		@ args = 0, pretend = 0, frame = 0
 371              		@ frame_needed = 1, uses_anonymous_args = 0
 372 0000 80B5     		push	{r7, lr}
 373              		.cfi_def_cfa_offset 8
 374              		.cfi_offset 7, -8
 375              		.cfi_offset 14, -4
 376 0002 00AF     		add	r7, sp, #0
 377              		.cfi_def_cfa_register 7
 236:userinterface.c **** 	stateSys = STATUS_ERROR;	
 378              		.loc 1 236 0
 379 0004 024B     		ldr	r3, .L25
 380 0006 0322     		movs	r2, #3
 381 0008 1A70     		strb	r2, [r3]
 237:userinterface.c **** }
ARM GAS  C:\Users\IlyR\AppData\Local\Temp\ccdWaOeT.s 			page 12


 382              		.loc 1 237 0
 383 000a C046     		nop
 384 000c BD46     		mov	sp, r7
 385              		@ sp needed
 386 000e 80BD     		pop	{r7, pc}
 387              	.L26:
 388              		.align	2
 389              	.L25:
 390 0010 00000000 		.word	stateSys
 391              		.cfi_endproc
 392              	.LFE36:
 393              		.size	UpdateStatusError, .-UpdateStatusError
 394              		.section	.text.BCPPoll,"ax",%progbits
 395              		.align	2
 396              		.global	BCPPoll
 397              		.code	16
 398              		.thumb_func
 399              		.type	BCPPoll, %function
 400              	BCPPoll:
 401              	.LFB37:
 238:userinterface.c **** 
 239:userinterface.c **** /****************************************************************************************
 240:userinterface.c **** *                                                                             
 241:userinterface.c **** *   Function:    BCPPoll                                                        
 242:userinterface.c **** *                                                                             
 243:userinterface.c **** *   Description: BCPPoll routine                                                   
 244:userinterface.c **** *             Format:  RX8 [h=55] @0speed @1speed [t=AA]                      
 245:userinterface.c **** *   Parameters:   None                                                          
 246:userinterface.c **** *                                                                                 
 247:userinterface.c **** *   Returns:     None                                                                 
 248:userinterface.c **** *                                                                                   
 249:userinterface.c **** ****************************************************************************************/
 250:userinterface.c **** 
 251:userinterface.c **** void BCPPoll()
 252:userinterface.c **** {
 402              		.loc 1 252 0
 403              		.cfi_startproc
 404              		@ args = 0, pretend = 0, frame = 8
 405              		@ frame_needed = 1, uses_anonymous_args = 0
 406 0000 80B5     		push	{r7, lr}
 407              		.cfi_def_cfa_offset 8
 408              		.cfi_offset 7, -8
 409              		.cfi_offset 14, -4
 410 0002 82B0     		sub	sp, sp, #8
 411              		.cfi_def_cfa_offset 16
 412 0004 00AF     		add	r7, sp, #0
 413              		.cfi_def_cfa_register 7
 253:userinterface.c ****     uint8 index = 0;
 414              		.loc 1 253 0
 415 0006 FB1D     		adds	r3, r7, #7
 416 0008 0022     		movs	r2, #0
 417 000a 1A70     		strb	r2, [r3]
 254:userinterface.c ****     
 255:userinterface.c ****     if(UART_BCP_SpiUartGetTxBufferSize())
 418              		.loc 1 255 0
 419 000c FFF7FEFF 		bl	UART_BCP_SpiUartGetTxBufferSize
 420 0010 031E     		subs	r3, r0, #0
ARM GAS  C:\Users\IlyR\AppData\Local\Temp\ccdWaOeT.s 			page 13


 421 0012 49D1     		bne	.L30
 256:userinterface.c ****        return;
 257:userinterface.c ****     
 258:userinterface.c ****     /* package header */
 259:userinterface.c ****     bcpTxBuffer[index++] = 0x55;
 422              		.loc 1 259 0
 423 0014 FB1D     		adds	r3, r7, #7
 424 0016 1B78     		ldrb	r3, [r3]
 425 0018 FA1D     		adds	r2, r7, #7
 426 001a 591C     		adds	r1, r3, #1
 427 001c 1170     		strb	r1, [r2]
 428 001e 1A00     		movs	r2, r3
 429 0020 234B     		ldr	r3, .L31
 430 0022 5521     		movs	r1, #85
 431 0024 9954     		strb	r1, [r3, r2]
 260:userinterface.c ****     
 261:userinterface.c ****     /* construct BCP data package with speed value, MSB first */    
 262:userinterface.c ****     
 263:userinterface.c ****     /* current measured speed */
 264:userinterface.c ****     bcpTxBuffer[index++] = (uint8)((UI_Data.speedRpm & 0xFF00) >> 8);
 432              		.loc 1 264 0
 433 0026 FB1D     		adds	r3, r7, #7
 434 0028 1B78     		ldrb	r3, [r3]
 435 002a FA1D     		adds	r2, r7, #7
 436 002c 591C     		adds	r1, r3, #1
 437 002e 1170     		strb	r1, [r2]
 438 0030 1A00     		movs	r2, r3
 439 0032 204B     		ldr	r3, .L31+4
 440 0034 9B88     		ldrh	r3, [r3, #4]
 441 0036 1B0A     		lsrs	r3, r3, #8
 442 0038 9BB2     		uxth	r3, r3
 443 003a D9B2     		uxtb	r1, r3
 444 003c 1C4B     		ldr	r3, .L31
 445 003e 9954     		strb	r1, [r3, r2]
 265:userinterface.c ****     bcpTxBuffer[index++] = (uint8)(UI_Data.speedRpm & 0x00FF); 
 446              		.loc 1 265 0
 447 0040 FB1D     		adds	r3, r7, #7
 448 0042 1B78     		ldrb	r3, [r3]
 449 0044 FA1D     		adds	r2, r7, #7
 450 0046 591C     		adds	r1, r3, #1
 451 0048 1170     		strb	r1, [r2]
 452 004a 1A00     		movs	r2, r3
 453 004c 194B     		ldr	r3, .L31+4
 454 004e 9B88     		ldrh	r3, [r3, #4]
 455 0050 D9B2     		uxtb	r1, r3
 456 0052 174B     		ldr	r3, .L31
 457 0054 9954     		strb	r1, [r3, r2]
 266:userinterface.c ****     /* speed reference */
 267:userinterface.c ****     bcpTxBuffer[index++] = (uint8)((UI_Data.speedRpmRef & 0xFF00) >> 8);
 458              		.loc 1 267 0
 459 0056 FB1D     		adds	r3, r7, #7
 460 0058 1B78     		ldrb	r3, [r3]
 461 005a FA1D     		adds	r2, r7, #7
 462 005c 591C     		adds	r1, r3, #1
 463 005e 1170     		strb	r1, [r2]
 464 0060 1A00     		movs	r2, r3
 465 0062 144B     		ldr	r3, .L31+4
ARM GAS  C:\Users\IlyR\AppData\Local\Temp\ccdWaOeT.s 			page 14


 466 0064 DB88     		ldrh	r3, [r3, #6]
 467 0066 1B0A     		lsrs	r3, r3, #8
 468 0068 9BB2     		uxth	r3, r3
 469 006a D9B2     		uxtb	r1, r3
 470 006c 104B     		ldr	r3, .L31
 471 006e 9954     		strb	r1, [r3, r2]
 268:userinterface.c ****     bcpTxBuffer[index++] = (uint8)(UI_Data.speedRpmRef & 0x00FF);   
 472              		.loc 1 268 0
 473 0070 FB1D     		adds	r3, r7, #7
 474 0072 1B78     		ldrb	r3, [r3]
 475 0074 FA1D     		adds	r2, r7, #7
 476 0076 591C     		adds	r1, r3, #1
 477 0078 1170     		strb	r1, [r2]
 478 007a 1A00     		movs	r2, r3
 479 007c 0D4B     		ldr	r3, .L31+4
 480 007e DB88     		ldrh	r3, [r3, #6]
 481 0080 D9B2     		uxtb	r1, r3
 482 0082 0B4B     		ldr	r3, .L31
 483 0084 9954     		strb	r1, [r3, r2]
 269:userinterface.c ****    
 270:userinterface.c ****     
 271:userinterface.c ****     /* package tail */
 272:userinterface.c ****     bcpTxBuffer[index++] = 0xAA;
 484              		.loc 1 272 0
 485 0086 FB1D     		adds	r3, r7, #7
 486 0088 1B78     		ldrb	r3, [r3]
 487 008a FA1D     		adds	r2, r7, #7
 488 008c 591C     		adds	r1, r3, #1
 489 008e 1170     		strb	r1, [r2]
 490 0090 1A00     		movs	r2, r3
 491 0092 074B     		ldr	r3, .L31
 492 0094 AA21     		movs	r1, #170
 493 0096 9954     		strb	r1, [r3, r2]
 273:userinterface.c ****     
 274:userinterface.c ****     UART_BCP_SpiUartPutArray(bcpTxBuffer, index);
 494              		.loc 1 274 0
 495 0098 FB1D     		adds	r3, r7, #7
 496 009a 1A78     		ldrb	r2, [r3]
 497 009c 044B     		ldr	r3, .L31
 498 009e 1100     		movs	r1, r2
 499 00a0 1800     		movs	r0, r3
 500 00a2 FFF7FEFF 		bl	UART_BCP_SpiUartPutArray
 501 00a6 00E0     		b	.L27
 502              	.L30:
 256:userinterface.c ****     
 503              		.loc 1 256 0
 504 00a8 C046     		nop
 505              	.L27:
 275:userinterface.c **** }
 506              		.loc 1 275 0
 507 00aa BD46     		mov	sp, r7
 508 00ac 02B0     		add	sp, sp, #8
 509              		@ sp needed
 510 00ae 80BD     		pop	{r7, pc}
 511              	.L32:
 512              		.align	2
 513              	.L31:
ARM GAS  C:\Users\IlyR\AppData\Local\Temp\ccdWaOeT.s 			page 15


 514 00b0 04000000 		.word	bcpTxBuffer
 515 00b4 00000000 		.word	UI_Data
 516              		.cfi_endproc
 517              	.LFE37:
 518              		.size	BCPPoll, .-BCPPoll
 519              		.text
 520              	.Letext0:
 521              		.file 2 "Generated_Source\\PSoC4/cytypes.h"
 522              		.file 3 "motor.h"
 523              		.file 4 "userinterface.h"